# SymbolsHelper-Confirmed: 6.6.1 amd64
libQt6PositioningQuick.so.6 libqt6positioningquick6 #MINVER#
* Build-Depends-Package: qt6-positioning-dev
 Qt_6@Qt_6 6.6.0
 Qt_6_PRIVATE_API@Qt_6_PRIVATE_API 6.6.0
 _Z24q_coordinateInterpolatorRK14QGeoCoordinateS1_d@Qt_6 6.6.0
 _Z32qml_register_types_QtPositioningv@Qt_6 6.6.0
 _ZGVZN9QMetaType21registerConverterImplI5QListI10QGeoCircleE9QIterableI13QMetaSequenceEEEbSt8functionIFbPKvPvEES_S_E10unregister@Qt_6 6.6.0
 _ZGVZN9QMetaType21registerConverterImplI5QListI11QGeoAddressE9QIterableI13QMetaSequenceEEEbSt8functionIFbPKvPvEES_S_E10unregister@Qt_6 6.6.0
 _ZGVZN9QMetaType21registerConverterImplI5QListI11QGeoPolygonE9QIterableI13QMetaSequenceEEEbSt8functionIFbPKvPvEES_S_E10unregister@Qt_6 6.6.0
 _ZGVZN9QMetaType21registerConverterImplI5QListI12QGeoLocationE9QIterableI13QMetaSequenceEEEbSt8functionIFbPKvPvEES_S_E10unregister@Qt_6 6.6.0
 _ZGVZN9QMetaType21registerConverterImplI5QListI13QGeoRectangleE9QIterableI13QMetaSequenceEEEbSt8functionIFbPKvPvEES_S_E10unregister@Qt_6 6.6.0
 _ZGVZN9QMetaType21registerConverterImplI5QListI14QGeoCoordinateE9QIterableI13QMetaSequenceEEEbSt8functionIFbPKvPvEES_S_E10unregister@Qt_6 6.6.0
 _ZGVZN9QMetaType21registerConverterImplI5QListI16QGeoPositionInfoE9QIterableI13QMetaSequenceEEEbSt8functionIFbPKvPvEES_S_E10unregister@Qt_6 6.6.0
 _ZGVZN9QMetaType21registerConverterImplI5QListI17QGeoSatelliteInfoE9QIterableI13QMetaSequenceEEEbSt8functionIFbPKvPvEES_S_E10unregister@Qt_6 6.6.0
 _ZGVZN9QMetaType21registerConverterImplI5QListI8QGeoPathE9QIterableI13QMetaSequenceEEEbSt8functionIFbPKvPvEES_S_E10unregister@Qt_6 6.6.0
 _ZGVZN9QMetaType21registerConverterImplI5QListI9QGeoShapeE9QIterableI13QMetaSequenceEEEbSt8functionIFbPKvPvEES_S_E10unregister@Qt_6 6.6.0
 _ZGVZN9QMetaType23registerMutableViewImplI5QListI10QGeoCircleE9QIterableI13QMetaSequenceEEEbSt8functionIFbPvS8_EES_S_E10unregister@Qt_6 6.6.0
 _ZGVZN9QMetaType23registerMutableViewImplI5QListI11QGeoAddressE9QIterableI13QMetaSequenceEEEbSt8functionIFbPvS8_EES_S_E10unregister@Qt_6 6.6.0
 _ZGVZN9QMetaType23registerMutableViewImplI5QListI11QGeoPolygonE9QIterableI13QMetaSequenceEEEbSt8functionIFbPvS8_EES_S_E10unregister@Qt_6 6.6.0
 _ZGVZN9QMetaType23registerMutableViewImplI5QListI12QGeoLocationE9QIterableI13QMetaSequenceEEEbSt8functionIFbPvS8_EES_S_E10unregister@Qt_6 6.6.0
 _ZGVZN9QMetaType23registerMutableViewImplI5QListI13QGeoRectangleE9QIterableI13QMetaSequenceEEEbSt8functionIFbPvS8_EES_S_E10unregister@Qt_6 6.6.0
 _ZGVZN9QMetaType23registerMutableViewImplI5QListI14QGeoCoordinateE9QIterableI13QMetaSequenceEEEbSt8functionIFbPvS8_EES_S_E10unregister@Qt_6 6.6.0
 _ZGVZN9QMetaType23registerMutableViewImplI5QListI16QGeoPositionInfoE9QIterableI13QMetaSequenceEEEbSt8functionIFbPvS8_EES_S_E10unregister@Qt_6 6.6.0
 _ZGVZN9QMetaType23registerMutableViewImplI5QListI17QGeoSatelliteInfoE9QIterableI13QMetaSequenceEEEbSt8functionIFbPvS8_EES_S_E10unregister@Qt_6 6.6.0
 _ZGVZN9QMetaType23registerMutableViewImplI5QListI8QGeoPathE9QIterableI13QMetaSequenceEEEbSt8functionIFbPvS8_EES_S_E10unregister@Qt_6 6.6.0
 _ZGVZN9QMetaType23registerMutableViewImplI5QListI9QGeoShapeE9QIterableI13QMetaSequenceEEEbSt8functionIFbPvS8_EES_S_E10unregister@Qt_6 6.6.0
 _ZN13QMetaSequence12MetaSequenceI5QListI10QGeoCircleEE5valueE@Qt_6 6.6.0
 _ZN13QMetaSequence12MetaSequenceI5QListI11QGeoAddressEE5valueE@Qt_6 6.6.0
 _ZN13QMetaSequence12MetaSequenceI5QListI11QGeoPolygonEE5valueE@Qt_6 6.6.0
 _ZN13QMetaSequence12MetaSequenceI5QListI12QGeoLocationEE5valueE@Qt_6 6.6.0
 _ZN13QMetaSequence12MetaSequenceI5QListI13QGeoRectangleEE5valueE@Qt_6 6.6.0
 _ZN13QMetaSequence12MetaSequenceI5QListI14QGeoCoordinateEE5valueE@Qt_6 6.6.0
 _ZN13QMetaSequence12MetaSequenceI5QListI16QGeoPositionInfoEE5valueE@Qt_6 6.6.0
 _ZN13QMetaSequence12MetaSequenceI5QListI17QGeoSatelliteInfoEE5valueE@Qt_6 6.6.0
 _ZN13QMetaSequence12MetaSequenceI5QListI8QGeoPathEE5valueE@Qt_6 6.6.0
 _ZN13QMetaSequence12MetaSequenceI5QListI9QGeoShapeEE5valueE@Qt_6 6.6.0
 _ZN17LocationSingleton11qt_metacallEN11QMetaObject4CallEiPPv@Qt_6_PRIVATE_API 6.6.0
 _ZN17LocationSingleton11qt_metacastEPKc@Qt_6_PRIVATE_API 6.6.0
 _ZN17LocationSingleton16staticMetaObjectE@Qt_6_PRIVATE_API 6.6.0
 _ZN17LocationSingletonC1EP7QObject@Qt_6_PRIVATE_API 6.6.0
 _ZN17LocationSingletonC2EP7QObject@Qt_6_PRIVATE_API 6.6.0
 _ZN20QDeclarativePosition11qt_metacallEN11QMetaObject4CallEiPPv@Qt_6_PRIVATE_API 6.6.0
 _ZN20QDeclarativePosition11qt_metacastEPKc@Qt_6_PRIVATE_API 6.6.0
 _ZN20QDeclarativePosition11setPositionERK16QGeoPositionInfo@Qt_6_PRIVATE_API 6.6.0
 _ZN20QDeclarativePosition16staticMetaObjectE@Qt_6_PRIVATE_API 6.6.0
 _ZN20QDeclarativePositionC1EP7QObject@Qt_6_PRIVATE_API 6.6.0
 _ZN20QDeclarativePositionC2EP7QObject@Qt_6_PRIVATE_API 6.6.0
 _ZN20QDeclarativePositionD0Ev@Qt_6_PRIVATE_API 6.6.0
 _ZN20QDeclarativePositionD1Ev@Qt_6_PRIVATE_API 6.6.0
 _ZN20QDeclarativePositionD2Ev@Qt_6_PRIVATE_API 6.6.0
 _ZN22QDeclarativeGeoAddress10setAddressERK11QGeoAddress@Qt_6_PRIVATE_API 6.6.0
 _ZN22QDeclarativeGeoAddress10setCountryERK7QString@Qt_6_PRIVATE_API 6.6.0
 _ZN22QDeclarativeGeoAddress11cityChangedEv@Qt_6_PRIVATE_API 6.6.0
 _ZN22QDeclarativeGeoAddress11qt_metacallEN11QMetaObject4CallEiPPv@Qt_6_PRIVATE_API 6.6.0
 _ZN22QDeclarativeGeoAddress11qt_metacastEPKc@Qt_6_PRIVATE_API 6.6.0
 _ZN22QDeclarativeGeoAddress11setDistrictERK7QString@Qt_6_PRIVATE_API 6.6.0
 _ZN22QDeclarativeGeoAddress11textChangedEv@Qt_6_PRIVATE_API 6.6.0
 _ZN22QDeclarativeGeoAddress12stateChangedEv@Qt_6_PRIVATE_API 6.6.0
 _ZN22QDeclarativeGeoAddress13countyChangedEv@Qt_6_PRIVATE_API 6.6.0
 _ZN22QDeclarativeGeoAddress13setPostalCodeERK7QString@Qt_6_PRIVATE_API 6.6.0
 _ZN22QDeclarativeGeoAddress13streetChangedEv@Qt_6_PRIVATE_API 6.6.0
 _ZN22QDeclarativeGeoAddress14countryChangedEv@Qt_6_PRIVATE_API 6.6.0
 _ZN22QDeclarativeGeoAddress14setCountryCodeERK7QString@Qt_6_PRIVATE_API 6.6.0
 _ZN22QDeclarativeGeoAddress15districtChangedEv@Qt_6_PRIVATE_API 6.6.0
 _ZN22QDeclarativeGeoAddress15setStreetNumberERK7QString@Qt_6_PRIVATE_API 6.6.0
 _ZN22QDeclarativeGeoAddress16staticMetaObjectE@Qt_6_PRIVATE_API 6.6.0
 _ZN22QDeclarativeGeoAddress17postalCodeChangedEv@Qt_6_PRIVATE_API 6.6.0
 _ZN22QDeclarativeGeoAddress18countryCodeChangedEv@Qt_6_PRIVATE_API 6.6.0
 _ZN22QDeclarativeGeoAddress19streetNumberChangedEv@Qt_6_PRIVATE_API 6.6.0
 _ZN22QDeclarativeGeoAddress22isTextGeneratedChangedEv@Qt_6_PRIVATE_API 6.6.0
 _ZN22QDeclarativeGeoAddress7setCityERK7QString@Qt_6_PRIVATE_API 6.6.0
 _ZN22QDeclarativeGeoAddress7setTextERK7QString@Qt_6_PRIVATE_API 6.6.0
 _ZN22QDeclarativeGeoAddress8setStateERK7QString@Qt_6_PRIVATE_API 6.6.0
 _ZN22QDeclarativeGeoAddress9setCountyERK7QString@Qt_6_PRIVATE_API 6.6.0
 _ZN22QDeclarativeGeoAddress9setStreetERK7QString@Qt_6_PRIVATE_API 6.6.0
 _ZN22QDeclarativeGeoAddressC1EP7QObject@Qt_6_PRIVATE_API 6.6.0
 _ZN22QDeclarativeGeoAddressC1ERK11QGeoAddressP7QObject@Qt_6_PRIVATE_API 6.6.0
 _ZN22QDeclarativeGeoAddressC2EP7QObject@Qt_6_PRIVATE_API 6.6.0
 _ZN22QDeclarativeGeoAddressC2ERK11QGeoAddressP7QObject@Qt_6_PRIVATE_API 6.6.0
 _ZN23QDeclarativeGeoLocation10setAddressEP22QDeclarativeGeoAddress@Qt_6_PRIVATE_API 6.6.0
 _ZN23QDeclarativeGeoLocation11qt_metacallEN11QMetaObject4CallEiPPv@Qt_6_PRIVATE_API 6.6.0
 _ZN23QDeclarativeGeoLocation11qt_metacastEPKc@Qt_6_PRIVATE_API 6.6.0
 _ZN23QDeclarativeGeoLocation11setLocationERK12QGeoLocation@Qt_6_PRIVATE_API 6.6.0
 _ZN23QDeclarativeGeoLocation13setCoordinateE14QGeoCoordinate@Qt_6_PRIVATE_API 6.6.0
 _ZN23QDeclarativeGeoLocation15bindableAddressEv@Qt_6_PRIVATE_API 6.6.0
 _ZN23QDeclarativeGeoLocation16setBoundingShapeERK9QGeoShape@Qt_6_PRIVATE_API 6.6.0
 _ZN23QDeclarativeGeoLocation16staticMetaObjectE@Qt_6_PRIVATE_API 6.6.0
 _ZN23QDeclarativeGeoLocation18bindableCoordinateEv@Qt_6_PRIVATE_API 6.6.0
 _ZN23QDeclarativeGeoLocation19setLocationInternalERK12QGeoLocation@Qt_6_PRIVATE_API 6.6.1
 _ZN23QDeclarativeGeoLocation21bindableBoundingShapeEv@Qt_6_PRIVATE_API 6.6.0
 _ZN23QDeclarativeGeoLocation21setExtendedAttributesERK4QMapI7QString8QVariantE@Qt_6_PRIVATE_API 6.6.0
 _ZN23QDeclarativeGeoLocation26bindableExtendedAttributesEv@Qt_6_PRIVATE_API 6.6.0
 _ZN23QDeclarativeGeoLocationC1EP7QObject@Qt_6_PRIVATE_API 6.6.0
 _ZN23QDeclarativeGeoLocationC1ERK12QGeoLocationP7QObject@Qt_6_PRIVATE_API 6.6.0
 _ZN23QDeclarativeGeoLocationC2EP7QObject@Qt_6_PRIVATE_API 6.6.0
 _ZN23QDeclarativeGeoLocationC2ERK12QGeoLocationP7QObject@Qt_6_PRIVATE_API 6.6.0
 _ZN23QDeclarativeGeoLocationD0Ev@Qt_6_PRIVATE_API 6.6.0
 _ZN23QDeclarativeGeoLocationD1Ev@Qt_6_PRIVATE_API 6.6.0
 _ZN23QDeclarativeGeoLocationD2Ev@Qt_6_PRIVATE_API 6.6.0
 _ZN26QDeclarativePositionSource10parametersEv@Qt_6_PRIVATE_API 6.6.0
 _ZN26QDeclarativePositionSource11nameChangedEv@Qt_6_PRIVATE_API 6.6.0
 _ZN26QDeclarativePositionSource11qt_metacallEN11QMetaObject4CallEiPPv@Qt_6_PRIVATE_API 6.6.0
 _ZN26QDeclarativePositionSource11qt_metacastEPKc@Qt_6_PRIVATE_API 6.6.0
 _ZN26QDeclarativePositionSource11setPositionERK16QGeoPositionInfo@Qt_6_PRIVATE_API 6.6.0
 _ZN26QDeclarativePositionSource12bindableNameEv@Qt_6_PRIVATE_API 6.6.0
 _ZN26QDeclarativePositionSource12executeStartEv@Qt_6_PRIVATE_API 6.6.0
 (subst)_ZN26QDeclarativePositionSource12parameter_atEP16QQmlListPropertyI27QDeclarativePluginParameterE{qptrdiff}@Qt_6_PRIVATE_API 6.6.0
 _ZN26QDeclarativePositionSource13activeChangedEv@Qt_6_PRIVATE_API 6.6.0
 _ZN26QDeclarativePositionSource14bindableActiveEv@Qt_6_PRIVATE_API 6.6.0
 _ZN26QDeclarativePositionSource15parameter_clearEP16QQmlListPropertyI27QDeclarativePluginParameterE@Qt_6_PRIVATE_API 6.6.0
 _ZN26QDeclarativePositionSource15parameter_countEP16QQmlListPropertyI27QDeclarativePluginParameterE@Qt_6_PRIVATE_API 6.6.0
 _ZN26QDeclarativePositionSource15parametersReadyEv@Qt_6_PRIVATE_API 6.6.0
 _ZN26QDeclarativePositionSource15positionChangedEv@Qt_6_PRIVATE_API 6.6.0
 _ZN26QDeclarativePositionSource15validityChangedEv@Qt_6_PRIVATE_API 6.6.0
 _ZN26QDeclarativePositionSource16parameter_appendEP16QQmlListPropertyI27QDeclarativePluginParameterEPS1_@Qt_6_PRIVATE_API 6.6.0
 _ZN26QDeclarativePositionSource16staticMetaObjectE@Qt_6_PRIVATE_API 6.6.0
 _ZN26QDeclarativePositionSource17componentCompleteEv@Qt_6_PRIVATE_API 6.6.0
 _ZN26QDeclarativePositionSource17setUpdateIntervalEi@Qt_6_PRIVATE_API 6.6.0
 _ZN26QDeclarativePositionSource18setBackendPropertyERK7QStringRK8QVariant@Qt_6_PRIVATE_API 6.6.0
 _ZN26QDeclarativePositionSource18sourceErrorChangedEv@Qt_6_PRIVATE_API 6.6.0
 _ZN26QDeclarativePositionSource19sourceErrorReceivedEN22QGeoPositionInfoSource5ErrorE@Qt_6_PRIVATE_API 6.6.0
 _ZN26QDeclarativePositionSource21updateIntervalChangedEv@Qt_6_PRIVATE_API 6.6.0
 _ZN26QDeclarativePositionSource22onParameterInitializedEv@Qt_6_PRIVATE_API 6.6.0
 _ZN26QDeclarativePositionSource22positionUpdateReceivedERK16QGeoPositionInfo@Qt_6_PRIVATE_API 6.6.0
 _ZN26QDeclarativePositionSource30setPreferredPositioningMethodsE6QFlagsINS_17PositioningMethodEE@Qt_6_PRIVATE_API 6.6.0
 _ZN26QDeclarativePositionSource34preferredPositioningMethodsChangedEv@Qt_6_PRIVATE_API 6.6.0
 _ZN26QDeclarativePositionSource34supportedPositioningMethodsChangedEv@Qt_6_PRIVATE_API 6.6.0
 _ZN26QDeclarativePositionSource40notifySupportedPositioningMethodsChangedEv@Qt_6_PRIVATE_API 6.6.0
 _ZN26QDeclarativePositionSource4stopEv@Qt_6_PRIVATE_API 6.6.0
 _ZN26QDeclarativePositionSource5startEv@Qt_6_PRIVATE_API 6.6.0
 _ZN26QDeclarativePositionSource6updateEi@Qt_6_PRIVATE_API 6.6.0
 _ZN26QDeclarativePositionSource7setNameERK7QString@Qt_6_PRIVATE_API 6.6.0
 _ZN26QDeclarativePositionSource8positionEv@Qt_6_PRIVATE_API 6.6.0
 _ZN26QDeclarativePositionSource9setActiveEb@Qt_6_PRIVATE_API 6.6.0
 _ZN26QDeclarativePositionSource9setSourceEP22QGeoPositionInfoSource@Qt_6_PRIVATE_API 6.6.0
 _ZN26QDeclarativePositionSource9tryAttachERK7QStringb@Qt_6_PRIVATE_API 6.6.0
 _ZN26QDeclarativePositionSourceC1Ev@Qt_6_PRIVATE_API 6.6.0
 _ZN26QDeclarativePositionSourceC2Ev@Qt_6_PRIVATE_API 6.6.0
 _ZN26QDeclarativePositionSourceD0Ev@Qt_6_PRIVATE_API 6.6.0
 _ZN26QDeclarativePositionSourceD1Ev@Qt_6_PRIVATE_API 6.6.0
 _ZN26QDeclarativePositionSourceD2Ev@Qt_6_PRIVATE_API 6.6.0
 _ZN27QDeclarativePluginParameter11initializedEv@Qt_6_PRIVATE_API 6.6.0
 _ZN27QDeclarativePluginParameter11nameChangedERK7QString@Qt_6_PRIVATE_API 6.6.0
 _ZN27QDeclarativePluginParameter11qt_metacallEN11QMetaObject4CallEiPPv@Qt_6_PRIVATE_API 6.6.0
 _ZN27QDeclarativePluginParameter11qt_metacastEPKc@Qt_6_PRIVATE_API 6.6.0
 _ZN27QDeclarativePluginParameter12valueChangedERK8QVariant@Qt_6_PRIVATE_API 6.6.0
 _ZN27QDeclarativePluginParameter16staticMetaObjectE@Qt_6_PRIVATE_API 6.6.0
 _ZN27QDeclarativePluginParameter7setNameERK7QString@Qt_6_PRIVATE_API 6.6.0
 _ZN27QDeclarativePluginParameter8setValueERK8QVariant@Qt_6_PRIVATE_API 6.6.0
 _ZN27QDeclarativePluginParameterC1EP7QObject@Qt_6_PRIVATE_API 6.6.0
 _ZN27QDeclarativePluginParameterC2EP7QObject@Qt_6_PRIVATE_API 6.6.0
 _ZN27QDeclarativePluginParameterD0Ev@Qt_6_PRIVATE_API 6.6.0
 _ZN27QDeclarativePluginParameterD1Ev@Qt_6_PRIVATE_API 6.6.0
 _ZN27QDeclarativePluginParameterD2Ev@Qt_6_PRIVATE_API 6.6.0
 _ZN27QDeclarativeSatelliteSource10parametersEv@Qt_6_PRIVATE_API 6.6.0
 _ZN27QDeclarativeSatelliteSource11nameChangedEv@Qt_6_PRIVATE_API 6.6.0
 _ZN27QDeclarativeSatelliteSource11qt_metacallEN11QMetaObject4CallEiPPv@Qt_6_PRIVATE_API 6.6.0
 _ZN27QDeclarativeSatelliteSource11qt_metacastEPKc@Qt_6_PRIVATE_API 6.6.0
 _ZN27QDeclarativeSatelliteSource12createSourceERK7QString@Qt_6_PRIVATE_API 6.6.0
 _ZN27QDeclarativeSatelliteSource12executeStartEv@Qt_6_PRIVATE_API 6.6.0
 (subst)_ZN27QDeclarativeSatelliteSource12parameter_atEP16QQmlListPropertyI27QDeclarativePluginParameterE{qptrdiff}@Qt_6_PRIVATE_API 6.6.0
 _ZN27QDeclarativeSatelliteSource13activeChangedEv@Qt_6_PRIVATE_API 6.6.0
 _ZN27QDeclarativeSatelliteSource15parameter_clearEP16QQmlListPropertyI27QDeclarativePluginParameterE@Qt_6_PRIVATE_API 6.6.0
 _ZN27QDeclarativeSatelliteSource15parameter_countEP16QQmlListPropertyI27QDeclarativePluginParameterE@Qt_6_PRIVATE_API 6.6.0
 _ZN27QDeclarativeSatelliteSource15validityChangedEv@Qt_6_PRIVATE_API 6.6.0
 _ZN27QDeclarativeSatelliteSource16parameter_appendEP16QQmlListPropertyI27QDeclarativePluginParameterEPS1_@Qt_6_PRIVATE_API 6.6.0
 _ZN27QDeclarativeSatelliteSource16staticMetaObjectE@Qt_6_PRIVATE_API 6.6.0
 _ZN27QDeclarativeSatelliteSource17componentCompleteEv@Qt_6_PRIVATE_API 6.6.0
 _ZN27QDeclarativeSatelliteSource17setUpdateIntervalEi@Qt_6_PRIVATE_API 6.6.0
 _ZN27QDeclarativeSatelliteSource18setBackendPropertyERK7QStringRK8QVariant@Qt_6_PRIVATE_API 6.6.0
 _ZN27QDeclarativeSatelliteSource18sourceErrorChangedEv@Qt_6_PRIVATE_API 6.6.0
 _ZN27QDeclarativeSatelliteSource19executeSingleUpdateEi@Qt_6_PRIVATE_API 6.6.0
 _ZN27QDeclarativeSatelliteSource19sourceErrorReceivedEN23QGeoSatelliteInfoSource5ErrorE@Qt_6_PRIVATE_API 6.6.0
 _ZN27QDeclarativeSatelliteSource21updateIntervalChangedEv@Qt_6_PRIVATE_API 6.6.0
 _ZN27QDeclarativeSatelliteSource22onParameterInitializedEv@Qt_6_PRIVATE_API 6.6.0
 _ZN27QDeclarativeSatelliteSource22satellitesInUseChangedEv@Qt_6_PRIVATE_API 6.6.0
 _ZN27QDeclarativeSatelliteSource23satellitesInViewChangedEv@Qt_6_PRIVATE_API 6.6.0
 _ZN27QDeclarativeSatelliteSource26handleSingleUpdateReceivedEv@Qt_6_PRIVATE_API 6.6.0
 _ZN27QDeclarativeSatelliteSource29satellitesInUseUpdateReceivedERK5QListI17QGeoSatelliteInfoE@Qt_6_PRIVATE_API 6.6.0
 _ZN27QDeclarativeSatelliteSource30satellitesInViewUpdateReceivedERK5QListI17QGeoSatelliteInfoE@Qt_6_PRIVATE_API 6.6.0
 _ZN27QDeclarativeSatelliteSource4stopEv@Qt_6_PRIVATE_API 6.6.0
 _ZN27QDeclarativeSatelliteSource5startEv@Qt_6_PRIVATE_API 6.6.0
 _ZN27QDeclarativeSatelliteSource6updateEi@Qt_6_PRIVATE_API 6.6.0
 _ZN27QDeclarativeSatelliteSource7setNameERK7QString@Qt_6_PRIVATE_API 6.6.0
 _ZN27QDeclarativeSatelliteSource9setActiveEb@Qt_6_PRIVATE_API 6.6.0
 _ZN27QDeclarativeSatelliteSourceC1Ev@Qt_6_PRIVATE_API 6.6.0
 _ZN27QDeclarativeSatelliteSourceC2Ev@Qt_6_PRIVATE_API 6.6.0
 _ZN27QDeclarativeSatelliteSourceD0Ev@Qt_6_PRIVATE_API 6.6.0
 _ZN27QDeclarativeSatelliteSourceD1Ev@Qt_6_PRIVATE_API 6.6.0
 _ZN27QDeclarativeSatelliteSourceD2Ev@Qt_6_PRIVATE_API 6.6.0
 _ZN28QQuickGeoCoordinateAnimation11qt_metacallEN11QMetaObject4CallEiPPv@Qt_6_PRIVATE_API 6.6.0
 _ZN28QQuickGeoCoordinateAnimation11qt_metacastEPKc@Qt_6_PRIVATE_API 6.6.0
 _ZN28QQuickGeoCoordinateAnimation12setDirectionENS_9DirectionE@Qt_6_PRIVATE_API 6.6.0
 _ZN28QQuickGeoCoordinateAnimation16directionChangedEv@Qt_6_PRIVATE_API 6.6.0
 _ZN28QQuickGeoCoordinateAnimation16staticMetaObjectE@Qt_6_PRIVATE_API 6.6.0
 _ZN28QQuickGeoCoordinateAnimation17bindableDirectionEv@Qt_6_PRIVATE_API 6.6.0
 _ZN28QQuickGeoCoordinateAnimation5setToERK14QGeoCoordinate@Qt_6_PRIVATE_API 6.6.0
 _ZN28QQuickGeoCoordinateAnimation7setFromERK14QGeoCoordinate@Qt_6_PRIVATE_API 6.6.0
 _ZN28QQuickGeoCoordinateAnimationC1EP7QObject@Qt_6_PRIVATE_API 6.6.0
 _ZN28QQuickGeoCoordinateAnimationC2EP7QObject@Qt_6_PRIVATE_API 6.6.0
 _ZN28QQuickGeoCoordinateAnimationD0Ev@Qt_6_PRIVATE_API 6.6.0
 _ZN28QQuickGeoCoordinateAnimationD1Ev@Qt_6_PRIVATE_API 6.6.0
 _ZN28QQuickGeoCoordinateAnimationD2Ev@Qt_6_PRIVATE_API 6.6.0
 _ZNK17LocationSingleton10coordinateEddd@Qt_6_PRIVATE_API 6.6.0
 _ZNK17LocationSingleton10coordinateEv@Qt_6_PRIVATE_API 6.6.0
 _ZNK17LocationSingleton10metaObjectEv@Qt_6_PRIVATE_API 6.6.0
 _ZNK17LocationSingleton11shapeToPathERK9QGeoShape@Qt_6_PRIVATE_API 6.6.0
 _ZNK17LocationSingleton13shapeToCircleERK9QGeoShape@Qt_6_PRIVATE_API 6.6.0
 _ZNK17LocationSingleton14shapeToPolygonERK9QGeoShape@Qt_6_PRIVATE_API 6.6.0
 _ZNK17LocationSingleton15coordToMercatorERK14QGeoCoordinate@Qt_6_PRIVATE_API 6.6.0
 _ZNK17LocationSingleton15mercatorToCoordERK7QPointF@Qt_6_PRIVATE_API 6.6.0
 _ZNK17LocationSingleton16shapeToRectangleERK9QGeoShape@Qt_6_PRIVATE_API 6.6.0
 _ZNK17LocationSingleton4pathERK8QJSValued@Qt_6_PRIVATE_API 6.6.0
 _ZNK17LocationSingleton4pathEv@Qt_6_PRIVATE_API 6.6.0
 _ZNK17LocationSingleton5shapeEv@Qt_6_PRIVATE_API 6.6.0
 _ZNK17LocationSingleton6circleERK14QGeoCoordinated@Qt_6_PRIVATE_API 6.6.0
 _ZNK17LocationSingleton6circleEv@Qt_6_PRIVATE_API 6.6.0
 _ZNK17LocationSingleton7polygonERK5QListI8QVariantE@Qt_6_PRIVATE_API 6.6.0
 _ZNK17LocationSingleton7polygonERK5QListI8QVariantES4_@Qt_6_PRIVATE_API 6.6.0
 _ZNK17LocationSingleton7polygonEv@Qt_6_PRIVATE_API 6.6.0
 _ZNK17LocationSingleton9rectangleERK14QGeoCoordinateS2_@Qt_6_PRIVATE_API 6.6.0
 _ZNK17LocationSingleton9rectangleERK14QGeoCoordinatedd@Qt_6_PRIVATE_API 6.6.0
 _ZNK17LocationSingleton9rectangleERK5QListI8QVariantE@Qt_6_PRIVATE_API 6.6.0
 _ZNK17LocationSingleton9rectangleEv@Qt_6_PRIVATE_API 6.6.0
 _ZNK20QDeclarativePosition10coordinateEv@Qt_6_PRIVATE_API 6.6.0
 _ZNK20QDeclarativePosition10metaObjectEv@Qt_6_PRIVATE_API 6.6.0
 _ZNK20QDeclarativePosition12isSpeedValidEv@Qt_6_PRIVATE_API 6.6.0
 _ZNK20QDeclarativePosition13bindableSpeedEv@Qt_6_PRIVATE_API 6.6.0
 _ZNK20QDeclarativePosition13verticalSpeedEv@Qt_6_PRIVATE_API 6.6.0
 _ZNK20QDeclarativePosition15isAltitudeValidEv@Qt_6_PRIVATE_API 6.6.0
 _ZNK20QDeclarativePosition15isLatitudeValidEv@Qt_6_PRIVATE_API 6.6.0
 _ZNK20QDeclarativePosition16isDirectionValidEv@Qt_6_PRIVATE_API 6.6.0
 _ZNK20QDeclarativePosition16isLongitudeValidEv@Qt_6_PRIVATE_API 6.6.0
 _ZNK20QDeclarativePosition16verticalAccuracyEv@Qt_6_PRIVATE_API 6.6.0
 _ZNK20QDeclarativePosition17bindableDirectionEv@Qt_6_PRIVATE_API 6.6.0
 _ZNK20QDeclarativePosition17bindableTimestampEv@Qt_6_PRIVATE_API 6.6.0
 _ZNK20QDeclarativePosition17directionAccuracyEv@Qt_6_PRIVATE_API 6.6.0
 _ZNK20QDeclarativePosition17magneticVariationEv@Qt_6_PRIVATE_API 6.6.0
 _ZNK20QDeclarativePosition18bindableCoordinateEv@Qt_6_PRIVATE_API 6.6.0
 _ZNK20QDeclarativePosition18bindableSpeedValidEv@Qt_6_PRIVATE_API 6.6.0
 _ZNK20QDeclarativePosition18horizontalAccuracyEv@Qt_6_PRIVATE_API 6.6.0
 _ZNK20QDeclarativePosition20isVerticalSpeedValidEv@Qt_6_PRIVATE_API 6.6.0
 _ZNK20QDeclarativePosition21bindableAltitudeValidEv@Qt_6_PRIVATE_API 6.6.0
 _ZNK20QDeclarativePosition21bindableLatitudeValidEv@Qt_6_PRIVATE_API 6.6.0
 _ZNK20QDeclarativePosition21bindableVerticalSpeedEv@Qt_6_PRIVATE_API 6.6.0
 _ZNK20QDeclarativePosition22bindableDirectionValidEv@Qt_6_PRIVATE_API 6.6.0
 _ZNK20QDeclarativePosition22bindableLongitudeValidEv@Qt_6_PRIVATE_API 6.6.0
 _ZNK20QDeclarativePosition22speedActualCalculationEv@Qt_6_PRIVATE_API 6.6.0
 _ZNK20QDeclarativePosition23binableVerticalAccuracyEv@Qt_6_PRIVATE_API 6.6.0
 _ZNK20QDeclarativePosition23isVerticalAccuracyValidEv@Qt_6_PRIVATE_API 6.6.0
 _ZNK20QDeclarativePosition24isDirectionAccuracyValidEv@Qt_6_PRIVATE_API 6.6.0
 _ZNK20QDeclarativePosition24isMagneticVariationValidEv@Qt_6_PRIVATE_API 6.6.0
 _ZNK20QDeclarativePosition25bindableDirectionAccuracyEv@Qt_6_PRIVATE_API 6.6.0
 _ZNK20QDeclarativePosition25bindableMagneticVariationEv@Qt_6_PRIVATE_API 6.6.0
 _ZNK20QDeclarativePosition25isHorizontalAccuracyValidEv@Qt_6_PRIVATE_API 6.6.0
 _ZNK20QDeclarativePosition26bindableHorizontalAccuracyEv@Qt_6_PRIVATE_API 6.6.0
 _ZNK20QDeclarativePosition26bindableVerticalSpeedValidEv@Qt_6_PRIVATE_API 6.6.0
 _ZNK20QDeclarativePosition26directionActualCalculationEv@Qt_6_PRIVATE_API 6.6.0
 _ZNK20QDeclarativePosition26timestampActualCalculationEv@Qt_6_PRIVATE_API 6.6.0
 _ZNK20QDeclarativePosition27coordinateActualCalculationEv@Qt_6_PRIVATE_API 6.6.0
 _ZNK20QDeclarativePosition29bindableVerticalAccuracyValidEv@Qt_6_PRIVATE_API 6.6.0
 _ZNK20QDeclarativePosition29isSpeedValidActualCalculationEv@Qt_6_PRIVATE_API 6.6.0
 _ZNK20QDeclarativePosition30bindableDirectionAccuracyValidEv@Qt_6_PRIVATE_API 6.6.0
 _ZNK20QDeclarativePosition30bindableMagneticVariationValidEv@Qt_6_PRIVATE_API 6.6.0
 _ZNK20QDeclarativePosition30verticalSpeedActualCalculationEv@Qt_6_PRIVATE_API 6.6.0
 _ZNK20QDeclarativePosition31bindableHorizontalAccuracyValidEv@Qt_6_PRIVATE_API 6.6.0
 _ZNK20QDeclarativePosition32isAltitudeValidActualCalculationEv@Qt_6_PRIVATE_API 6.6.0
 _ZNK20QDeclarativePosition32isLatitudeValidActualCalculationEv@Qt_6_PRIVATE_API 6.6.0
 _ZNK20QDeclarativePosition33isDirectionValidActualCalculationEv@Qt_6_PRIVATE_API 6.6.0
 _ZNK20QDeclarativePosition33isLongitudeValidActualCalculationEv@Qt_6_PRIVATE_API 6.6.0
 _ZNK20QDeclarativePosition33verticalAccuracyActualCalculationEv@Qt_6_PRIVATE_API 6.6.0
 _ZNK20QDeclarativePosition34directionAccuracyActualCalculationEv@Qt_6_PRIVATE_API 6.6.0
 _ZNK20QDeclarativePosition34magneticVariationActualCalculationEv@Qt_6_PRIVATE_API 6.6.0
 _ZNK20QDeclarativePosition35horizontalAccuracyActualCalculationEv@Qt_6_PRIVATE_API 6.6.0
 _ZNK20QDeclarativePosition37isVerticalSpeedValidActualCalculationEv@Qt_6_PRIVATE_API 6.6.0
 _ZNK20QDeclarativePosition40isVerticalAccuracyValidActualCalculationEv@Qt_6_PRIVATE_API 6.6.0
 _ZNK20QDeclarativePosition41isDirectionAccuracyValidActualCalculationEv@Qt_6_PRIVATE_API 6.6.0
 _ZNK20QDeclarativePosition41isMagneticVariationValidActualCalculationEv@Qt_6_PRIVATE_API 6.6.0
 _ZNK20QDeclarativePosition42isHorizontalAccuracyValidActualCalculationEv@Qt_6_PRIVATE_API 6.6.0
 _ZNK20QDeclarativePosition5speedEv@Qt_6_PRIVATE_API 6.6.0
 _ZNK20QDeclarativePosition8positionEv@Qt_6_PRIVATE_API 6.6.0
 _ZNK20QDeclarativePosition9directionEv@Qt_6_PRIVATE_API 6.6.0
 _ZNK20QDeclarativePosition9timestampEv@Qt_6_PRIVATE_API 6.6.0
 _ZNK22QDeclarativeGeoAddress10metaObjectEv@Qt_6_PRIVATE_API 6.6.0
 _ZNK22QDeclarativeGeoAddress10postalCodeEv@Qt_6_PRIVATE_API 6.6.0
 _ZNK22QDeclarativeGeoAddress11countryCodeEv@Qt_6_PRIVATE_API 6.6.0
 _ZNK22QDeclarativeGeoAddress12streetNumberEv@Qt_6_PRIVATE_API 6.6.0
 _ZNK22QDeclarativeGeoAddress15isTextGeneratedEv@Qt_6_PRIVATE_API 6.6.0
 _ZNK22QDeclarativeGeoAddress4cityEv@Qt_6_PRIVATE_API 6.6.0
 _ZNK22QDeclarativeGeoAddress4textEv@Qt_6_PRIVATE_API 6.6.0
 _ZNK22QDeclarativeGeoAddress5stateEv@Qt_6_PRIVATE_API 6.6.0
 _ZNK22QDeclarativeGeoAddress6countyEv@Qt_6_PRIVATE_API 6.6.0
 _ZNK22QDeclarativeGeoAddress6streetEv@Qt_6_PRIVATE_API 6.6.0
 _ZNK22QDeclarativeGeoAddress7addressEv@Qt_6_PRIVATE_API 6.6.0
 _ZNK22QDeclarativeGeoAddress7countryEv@Qt_6_PRIVATE_API 6.6.0
 _ZNK22QDeclarativeGeoAddress8districtEv@Qt_6_PRIVATE_API 6.6.0
 _ZNK23QDeclarativeGeoLocation10coordinateEv@Qt_6_PRIVATE_API 6.6.0
 _ZNK23QDeclarativeGeoLocation10metaObjectEv@Qt_6_PRIVATE_API 6.6.0
 _ZNK23QDeclarativeGeoLocation13boundingShapeEv@Qt_6_PRIVATE_API 6.6.0
 _ZNK23QDeclarativeGeoLocation18extendedAttributesEv@Qt_6_PRIVATE_API 6.6.0
 _ZNK23QDeclarativeGeoLocation7addressEv@Qt_6_PRIVATE_API 6.6.0
 _ZNK23QDeclarativeGeoLocation8locationEv@Qt_6_PRIVATE_API 6.6.0
 _ZNK26QDeclarativePositionSource10metaObjectEv@Qt_6_PRIVATE_API 6.6.0
 _ZNK26QDeclarativePositionSource11sourceErrorEv@Qt_6_PRIVATE_API 6.6.0
 _ZNK26QDeclarativePositionSource12parameterMapEv@Qt_6_PRIVATE_API 6.6.0
 _ZNK26QDeclarativePositionSource14positionSourceEv@Qt_6_PRIVATE_API 6.6.0
 _ZNK26QDeclarativePositionSource14updateIntervalEv@Qt_6_PRIVATE_API 6.6.0
 _ZNK26QDeclarativePositionSource15backendPropertyERK7QString@Qt_6_PRIVATE_API 6.6.0
 _ZNK26QDeclarativePositionSource15bindableIsValidEv@Qt_6_PRIVATE_API 6.6.0
 _ZNK26QDeclarativePositionSource16bindablePositionEv@Qt_6_PRIVATE_API 6.6.0
 _ZNK26QDeclarativePositionSource19bindableSourceErrorEv@Qt_6_PRIVATE_API 6.6.0
 _ZNK26QDeclarativePositionSource24isValidActualComputationEv@Qt_6_PRIVATE_API 6.6.0
 _ZNK26QDeclarativePositionSource27preferredPositioningMethodsEv@Qt_6_PRIVATE_API 6.6.0
 _ZNK26QDeclarativePositionSource27supportedPositioningMethodsEv@Qt_6_PRIVATE_API 6.6.0
 _ZNK26QDeclarativePositionSource33supportedMethodsActualComputationEv@Qt_6_PRIVATE_API 6.6.0
 _ZNK26QDeclarativePositionSource35bindableSupportedPositioningMethodsEv@Qt_6_PRIVATE_API 6.6.0
 _ZNK26QDeclarativePositionSource4nameEv@Qt_6_PRIVATE_API 6.6.0
 _ZNK26QDeclarativePositionSource7isValidEv@Qt_6_PRIVATE_API 6.6.0
 _ZNK26QDeclarativePositionSource8isActiveEv@Qt_6_PRIVATE_API 6.6.0
 _ZNK27QDeclarativePluginParameter10metaObjectEv@Qt_6_PRIVATE_API 6.6.0
 _ZNK27QDeclarativePluginParameter13isInitializedEv@Qt_6_PRIVATE_API 6.6.0
 _ZNK27QDeclarativePluginParameter4nameEv@Qt_6_PRIVATE_API 6.6.0
 _ZNK27QDeclarativePluginParameter5valueEv@Qt_6_PRIVATE_API 6.6.0
 _ZNK27QDeclarativeSatelliteSource10metaObjectEv@Qt_6_PRIVATE_API 6.6.0
 _ZNK27QDeclarativeSatelliteSource11sourceErrorEv@Qt_6_PRIVATE_API 6.6.0
 _ZNK27QDeclarativeSatelliteSource12parameterMapEv@Qt_6_PRIVATE_API 6.6.0
 _ZNK27QDeclarativeSatelliteSource14updateIntervalEv@Qt_6_PRIVATE_API 6.6.0
 _ZNK27QDeclarativeSatelliteSource15backendPropertyERK7QString@Qt_6_PRIVATE_API 6.6.0
 _ZNK27QDeclarativeSatelliteSource15satellitesInUseEv@Qt_6_PRIVATE_API 6.6.0
 _ZNK27QDeclarativeSatelliteSource16satellitesInViewEv@Qt_6_PRIVATE_API 6.6.0
 _ZNK27QDeclarativeSatelliteSource4nameEv@Qt_6_PRIVATE_API 6.6.0
 _ZNK27QDeclarativeSatelliteSource7isValidEv@Qt_6_PRIVATE_API 6.6.0
 _ZNK27QDeclarativeSatelliteSource8isActiveEv@Qt_6_PRIVATE_API 6.6.0
 _ZNK28QQuickGeoCoordinateAnimation10metaObjectEv@Qt_6_PRIVATE_API 6.6.0
 _ZNK28QQuickGeoCoordinateAnimation2toEv@Qt_6_PRIVATE_API 6.6.0
 _ZNK28QQuickGeoCoordinateAnimation4fromEv@Qt_6_PRIVATE_API 6.6.0
 _ZNK28QQuickGeoCoordinateAnimation9directionEv@Qt_6_PRIVATE_API 6.6.0
 _ZTI17LocationSingleton@Qt_6_PRIVATE_API 6.6.0
 _ZTI20QDeclarativePosition@Qt_6_PRIVATE_API 6.6.0
 _ZTI22QDeclarativeGeoAddress@Qt_6_PRIVATE_API 6.6.0
 _ZTI23QDeclarativeGeoLocation@Qt_6_PRIVATE_API 6.6.0
 _ZTI26QDeclarativePositionSource@Qt_6_PRIVATE_API 6.6.0
 _ZTI27QDeclarativePluginParameter@Qt_6_PRIVATE_API 6.6.0
 _ZTI27QDeclarativeSatelliteSource@Qt_6_PRIVATE_API 6.6.0
 _ZTI28QQuickGeoCoordinateAnimation@Qt_6_PRIVATE_API 6.6.0
 _ZTIFP7QObjectP10QQmlEngineP9QJSEngineE@Qt_6 6.6.0
 _ZTIPFP7QObjectP10QQmlEngineP9QJSEngineE@Qt_6 6.6.0
 _ZTIZN9QMetaType17registerConverterI5QListI10QGeoCircleE9QIterableI13QMetaSequenceEN9QtPrivate33QSequentialIterableConvertFunctorIS3_EEEEbT1_EUlPKvPvE_@Qt_6 6.6.0
 _ZTIZN9QMetaType17registerConverterI5QListI11QGeoAddressE9QIterableI13QMetaSequenceEN9QtPrivate33QSequentialIterableConvertFunctorIS3_EEEEbT1_EUlPKvPvE_@Qt_6 6.6.0
 _ZTIZN9QMetaType17registerConverterI5QListI11QGeoPolygonE9QIterableI13QMetaSequenceEN9QtPrivate33QSequentialIterableConvertFunctorIS3_EEEEbT1_EUlPKvPvE_@Qt_6 6.6.0
 _ZTIZN9QMetaType17registerConverterI5QListI12QGeoLocationE9QIterableI13QMetaSequenceEN9QtPrivate33QSequentialIterableConvertFunctorIS3_EEEEbT1_EUlPKvPvE_@Qt_6 6.6.0
 _ZTIZN9QMetaType17registerConverterI5QListI13QGeoRectangleE9QIterableI13QMetaSequenceEN9QtPrivate33QSequentialIterableConvertFunctorIS3_EEEEbT1_EUlPKvPvE_@Qt_6 6.6.0
 _ZTIZN9QMetaType17registerConverterI5QListI14QGeoCoordinateE9QIterableI13QMetaSequenceEN9QtPrivate33QSequentialIterableConvertFunctorIS3_EEEEbT1_EUlPKvPvE_@Qt_6 6.6.0
 _ZTIZN9QMetaType17registerConverterI5QListI16QGeoPositionInfoE9QIterableI13QMetaSequenceEN9QtPrivate33QSequentialIterableConvertFunctorIS3_EEEEbT1_EUlPKvPvE_@Qt_6 6.6.0
 _ZTIZN9QMetaType17registerConverterI5QListI17QGeoSatelliteInfoE9QIterableI13QMetaSequenceEN9QtPrivate33QSequentialIterableConvertFunctorIS3_EEEEbT1_EUlPKvPvE_@Qt_6 6.6.0
 _ZTIZN9QMetaType17registerConverterI5QListI8QGeoPathE9QIterableI13QMetaSequenceEN9QtPrivate33QSequentialIterableConvertFunctorIS3_EEEEbT1_EUlPKvPvE_@Qt_6 6.6.0
 _ZTIZN9QMetaType17registerConverterI5QListI9QGeoShapeE9QIterableI13QMetaSequenceEN9QtPrivate33QSequentialIterableConvertFunctorIS3_EEEEbT1_EUlPKvPvE_@Qt_6 6.6.0
 _ZTIZN9QMetaType19registerMutableViewI5QListI10QGeoCircleE9QIterableI13QMetaSequenceEN9QtPrivate37QSequentialIterableMutableViewFunctorIS3_EEEEbT1_EUlPvSB_E_@Qt_6 6.6.0
 _ZTIZN9QMetaType19registerMutableViewI5QListI11QGeoAddressE9QIterableI13QMetaSequenceEN9QtPrivate37QSequentialIterableMutableViewFunctorIS3_EEEEbT1_EUlPvSB_E_@Qt_6 6.6.0
 _ZTIZN9QMetaType19registerMutableViewI5QListI11QGeoPolygonE9QIterableI13QMetaSequenceEN9QtPrivate37QSequentialIterableMutableViewFunctorIS3_EEEEbT1_EUlPvSB_E_@Qt_6 6.6.0
 _ZTIZN9QMetaType19registerMutableViewI5QListI12QGeoLocationE9QIterableI13QMetaSequenceEN9QtPrivate37QSequentialIterableMutableViewFunctorIS3_EEEEbT1_EUlPvSB_E_@Qt_6 6.6.0
 _ZTIZN9QMetaType19registerMutableViewI5QListI13QGeoRectangleE9QIterableI13QMetaSequenceEN9QtPrivate37QSequentialIterableMutableViewFunctorIS3_EEEEbT1_EUlPvSB_E_@Qt_6 6.6.0
 _ZTIZN9QMetaType19registerMutableViewI5QListI14QGeoCoordinateE9QIterableI13QMetaSequenceEN9QtPrivate37QSequentialIterableMutableViewFunctorIS3_EEEEbT1_EUlPvSB_E_@Qt_6 6.6.0
 _ZTIZN9QMetaType19registerMutableViewI5QListI16QGeoPositionInfoE9QIterableI13QMetaSequenceEN9QtPrivate37QSequentialIterableMutableViewFunctorIS3_EEEEbT1_EUlPvSB_E_@Qt_6 6.6.0
 _ZTIZN9QMetaType19registerMutableViewI5QListI17QGeoSatelliteInfoE9QIterableI13QMetaSequenceEN9QtPrivate37QSequentialIterableMutableViewFunctorIS3_EEEEbT1_EUlPvSB_E_@Qt_6 6.6.0
 _ZTIZN9QMetaType19registerMutableViewI5QListI8QGeoPathE9QIterableI13QMetaSequenceEN9QtPrivate37QSequentialIterableMutableViewFunctorIS3_EEEEbT1_EUlPvSB_E_@Qt_6 6.6.0
 _ZTIZN9QMetaType19registerMutableViewI5QListI9QGeoShapeE9QIterableI13QMetaSequenceEN9QtPrivate37QSequentialIterableMutableViewFunctorIS3_EEEEbT1_EUlPvSB_E_@Qt_6 6.6.0
 _ZTS17LocationSingleton@Qt_6_PRIVATE_API 6.6.0
 _ZTS20QDeclarativePosition@Qt_6_PRIVATE_API 6.6.0
 _ZTS22QDeclarativeGeoAddress@Qt_6_PRIVATE_API 6.6.0
 _ZTS23QDeclarativeGeoLocation@Qt_6_PRIVATE_API 6.6.0
 _ZTS26QDeclarativePositionSource@Qt_6_PRIVATE_API 6.6.0
 _ZTS27QDeclarativePluginParameter@Qt_6_PRIVATE_API 6.6.0
 _ZTS27QDeclarativeSatelliteSource@Qt_6_PRIVATE_API 6.6.0
 _ZTS28QQuickGeoCoordinateAnimation@Qt_6_PRIVATE_API 6.6.0
 _ZTSFP7QObjectP10QQmlEngineP9QJSEngineE@Qt_6 6.6.0
 _ZTSPFP7QObjectP10QQmlEngineP9QJSEngineE@Qt_6 6.6.0
 _ZTSZN9QMetaType17registerConverterI5QListI10QGeoCircleE9QIterableI13QMetaSequenceEN9QtPrivate33QSequentialIterableConvertFunctorIS3_EEEEbT1_EUlPKvPvE_@Qt_6 6.6.0
 _ZTSZN9QMetaType17registerConverterI5QListI11QGeoAddressE9QIterableI13QMetaSequenceEN9QtPrivate33QSequentialIterableConvertFunctorIS3_EEEEbT1_EUlPKvPvE_@Qt_6 6.6.0
 _ZTSZN9QMetaType17registerConverterI5QListI11QGeoPolygonE9QIterableI13QMetaSequenceEN9QtPrivate33QSequentialIterableConvertFunctorIS3_EEEEbT1_EUlPKvPvE_@Qt_6 6.6.0
 _ZTSZN9QMetaType17registerConverterI5QListI12QGeoLocationE9QIterableI13QMetaSequenceEN9QtPrivate33QSequentialIterableConvertFunctorIS3_EEEEbT1_EUlPKvPvE_@Qt_6 6.6.0
 _ZTSZN9QMetaType17registerConverterI5QListI13QGeoRectangleE9QIterableI13QMetaSequenceEN9QtPrivate33QSequentialIterableConvertFunctorIS3_EEEEbT1_EUlPKvPvE_@Qt_6 6.6.0
 _ZTSZN9QMetaType17registerConverterI5QListI14QGeoCoordinateE9QIterableI13QMetaSequenceEN9QtPrivate33QSequentialIterableConvertFunctorIS3_EEEEbT1_EUlPKvPvE_@Qt_6 6.6.0
 _ZTSZN9QMetaType17registerConverterI5QListI16QGeoPositionInfoE9QIterableI13QMetaSequenceEN9QtPrivate33QSequentialIterableConvertFunctorIS3_EEEEbT1_EUlPKvPvE_@Qt_6 6.6.0
 _ZTSZN9QMetaType17registerConverterI5QListI17QGeoSatelliteInfoE9QIterableI13QMetaSequenceEN9QtPrivate33QSequentialIterableConvertFunctorIS3_EEEEbT1_EUlPKvPvE_@Qt_6 6.6.0
 _ZTSZN9QMetaType17registerConverterI5QListI8QGeoPathE9QIterableI13QMetaSequenceEN9QtPrivate33QSequentialIterableConvertFunctorIS3_EEEEbT1_EUlPKvPvE_@Qt_6 6.6.0
 _ZTSZN9QMetaType17registerConverterI5QListI9QGeoShapeE9QIterableI13QMetaSequenceEN9QtPrivate33QSequentialIterableConvertFunctorIS3_EEEEbT1_EUlPKvPvE_@Qt_6 6.6.0
 _ZTSZN9QMetaType19registerMutableViewI5QListI10QGeoCircleE9QIterableI13QMetaSequenceEN9QtPrivate37QSequentialIterableMutableViewFunctorIS3_EEEEbT1_EUlPvSB_E_@Qt_6 6.6.0
 _ZTSZN9QMetaType19registerMutableViewI5QListI11QGeoAddressE9QIterableI13QMetaSequenceEN9QtPrivate37QSequentialIterableMutableViewFunctorIS3_EEEEbT1_EUlPvSB_E_@Qt_6 6.6.0
 _ZTSZN9QMetaType19registerMutableViewI5QListI11QGeoPolygonE9QIterableI13QMetaSequenceEN9QtPrivate37QSequentialIterableMutableViewFunctorIS3_EEEEbT1_EUlPvSB_E_@Qt_6 6.6.0
 _ZTSZN9QMetaType19registerMutableViewI5QListI12QGeoLocationE9QIterableI13QMetaSequenceEN9QtPrivate37QSequentialIterableMutableViewFunctorIS3_EEEEbT1_EUlPvSB_E_@Qt_6 6.6.0
 _ZTSZN9QMetaType19registerMutableViewI5QListI13QGeoRectangleE9QIterableI13QMetaSequenceEN9QtPrivate37QSequentialIterableMutableViewFunctorIS3_EEEEbT1_EUlPvSB_E_@Qt_6 6.6.0
 _ZTSZN9QMetaType19registerMutableViewI5QListI14QGeoCoordinateE9QIterableI13QMetaSequenceEN9QtPrivate37QSequentialIterableMutableViewFunctorIS3_EEEEbT1_EUlPvSB_E_@Qt_6 6.6.0
 _ZTSZN9QMetaType19registerMutableViewI5QListI16QGeoPositionInfoE9QIterableI13QMetaSequenceEN9QtPrivate37QSequentialIterableMutableViewFunctorIS3_EEEEbT1_EUlPvSB_E_@Qt_6 6.6.0
 _ZTSZN9QMetaType19registerMutableViewI5QListI17QGeoSatelliteInfoE9QIterableI13QMetaSequenceEN9QtPrivate37QSequentialIterableMutableViewFunctorIS3_EEEEbT1_EUlPvSB_E_@Qt_6 6.6.0
 _ZTSZN9QMetaType19registerMutableViewI5QListI8QGeoPathE9QIterableI13QMetaSequenceEN9QtPrivate37QSequentialIterableMutableViewFunctorIS3_EEEEbT1_EUlPvSB_E_@Qt_6 6.6.0
 _ZTSZN9QMetaType19registerMutableViewI5QListI9QGeoShapeE9QIterableI13QMetaSequenceEN9QtPrivate37QSequentialIterableMutableViewFunctorIS3_EEEEbT1_EUlPvSB_E_@Qt_6 6.6.0
 _ZTV17LocationSingleton@Qt_6_PRIVATE_API 6.6.0
 _ZTV20QDeclarativePosition@Qt_6_PRIVATE_API 6.6.0
 _ZTV22QDeclarativeGeoAddress@Qt_6_PRIVATE_API 6.6.0
 _ZTV23QDeclarativeGeoLocation@Qt_6_PRIVATE_API 6.6.0
 _ZTV26QDeclarativePositionSource@Qt_6_PRIVATE_API 6.6.0
 _ZTV27QDeclarativePluginParameter@Qt_6_PRIVATE_API 6.6.0
 _ZTV27QDeclarativeSatelliteSource@Qt_6_PRIVATE_API 6.6.0
 _ZTV28QQuickGeoCoordinateAnimation@Qt_6_PRIVATE_API 6.6.0
 (optional=templinst)_ZZN9QMetaType21registerConverterImplI5QListI10QGeoCircleE9QIterableI13QMetaSequenceEEEbSt8functionIFbPKvPvEES_S_E10unregister@Qt_6 6.6.0
 (optional=templinst)_ZZN9QMetaType21registerConverterImplI5QListI11QGeoAddressE9QIterableI13QMetaSequenceEEEbSt8functionIFbPKvPvEES_S_E10unregister@Qt_6 6.6.0
 (optional=templinst)_ZZN9QMetaType21registerConverterImplI5QListI11QGeoPolygonE9QIterableI13QMetaSequenceEEEbSt8functionIFbPKvPvEES_S_E10unregister@Qt_6 6.6.0
 (optional=templinst)_ZZN9QMetaType21registerConverterImplI5QListI12QGeoLocationE9QIterableI13QMetaSequenceEEEbSt8functionIFbPKvPvEES_S_E10unregister@Qt_6 6.6.0
 (optional=templinst)_ZZN9QMetaType21registerConverterImplI5QListI13QGeoRectangleE9QIterableI13QMetaSequenceEEEbSt8functionIFbPKvPvEES_S_E10unregister@Qt_6 6.6.0
 (optional=templinst)_ZZN9QMetaType21registerConverterImplI5QListI14QGeoCoordinateE9QIterableI13QMetaSequenceEEEbSt8functionIFbPKvPvEES_S_E10unregister@Qt_6 6.6.0
 (optional=templinst)_ZZN9QMetaType21registerConverterImplI5QListI16QGeoPositionInfoE9QIterableI13QMetaSequenceEEEbSt8functionIFbPKvPvEES_S_E10unregister@Qt_6 6.6.0
 (optional=templinst)_ZZN9QMetaType21registerConverterImplI5QListI17QGeoSatelliteInfoE9QIterableI13QMetaSequenceEEEbSt8functionIFbPKvPvEES_S_E10unregister@Qt_6 6.6.0
 (optional=templinst)_ZZN9QMetaType21registerConverterImplI5QListI8QGeoPathE9QIterableI13QMetaSequenceEEEbSt8functionIFbPKvPvEES_S_E10unregister@Qt_6 6.6.0
 (optional=templinst)_ZZN9QMetaType21registerConverterImplI5QListI9QGeoShapeE9QIterableI13QMetaSequenceEEEbSt8functionIFbPKvPvEES_S_E10unregister@Qt_6 6.6.0
 (optional=templinst)_ZZN9QMetaType23registerMutableViewImplI5QListI10QGeoCircleE9QIterableI13QMetaSequenceEEEbSt8functionIFbPvS8_EES_S_E10unregister@Qt_6 6.6.0
 (optional=templinst)_ZZN9QMetaType23registerMutableViewImplI5QListI11QGeoAddressE9QIterableI13QMetaSequenceEEEbSt8functionIFbPvS8_EES_S_E10unregister@Qt_6 6.6.0
 (optional=templinst)_ZZN9QMetaType23registerMutableViewImplI5QListI11QGeoPolygonE9QIterableI13QMetaSequenceEEEbSt8functionIFbPvS8_EES_S_E10unregister@Qt_6 6.6.0
 (optional=templinst)_ZZN9QMetaType23registerMutableViewImplI5QListI12QGeoLocationE9QIterableI13QMetaSequenceEEEbSt8functionIFbPvS8_EES_S_E10unregister@Qt_6 6.6.0
 (optional=templinst)_ZZN9QMetaType23registerMutableViewImplI5QListI13QGeoRectangleE9QIterableI13QMetaSequenceEEEbSt8functionIFbPvS8_EES_S_E10unregister@Qt_6 6.6.0
 (optional=templinst)_ZZN9QMetaType23registerMutableViewImplI5QListI14QGeoCoordinateE9QIterableI13QMetaSequenceEEEbSt8functionIFbPvS8_EES_S_E10unregister@Qt_6 6.6.0
 (optional=templinst)_ZZN9QMetaType23registerMutableViewImplI5QListI16QGeoPositionInfoE9QIterableI13QMetaSequenceEEEbSt8functionIFbPvS8_EES_S_E10unregister@Qt_6 6.6.0
 (optional=templinst)_ZZN9QMetaType23registerMutableViewImplI5QListI17QGeoSatelliteInfoE9QIterableI13QMetaSequenceEEEbSt8functionIFbPvS8_EES_S_E10unregister@Qt_6 6.6.0
 (optional=templinst)_ZZN9QMetaType23registerMutableViewImplI5QListI8QGeoPathE9QIterableI13QMetaSequenceEEEbSt8functionIFbPvS8_EES_S_E10unregister@Qt_6 6.6.0
 (optional=templinst)_ZZN9QMetaType23registerMutableViewImplI5QListI9QGeoShapeE9QIterableI13QMetaSequenceEEEbSt8functionIFbPvS8_EES_S_E10unregister@Qt_6 6.6.0
 (c++)"non-virtual thunk to QDeclarativePositionSource::componentComplete()@Qt_6_PRIVATE_API" 6.6.0
 (c++)"non-virtual thunk to QDeclarativePositionSource::~QDeclarativePositionSource()@Qt_6_PRIVATE_API" 6.6.0
 (c++)"non-virtual thunk to QDeclarativeSatelliteSource::componentComplete()@Qt_6_PRIVATE_API" 6.6.0
 (c++)"non-virtual thunk to QDeclarativeSatelliteSource::~QDeclarativeSatelliteSource()@Qt_6_PRIVATE_API" 6.6.0
 (c++)"non-virtual thunk to QQuickGeoCoordinateAnimation::~QQuickGeoCoordinateAnimation()@Qt_6_PRIVATE_API" 6.6.0
