# SymbolsHelper-Confirmed: 6.6.0 amd64 armel armhf hppa i386 powerpc sh4
libQt6Positioning.so.6 libqt6positioning6 #MINVER#
* Build-Depends-Package: qt6-location-dev
 Qt_6@Qt_6 6.6.0
 Qt_6_PRIVATE_API@Qt_6_PRIVATE_API 6.6.0
 _Z36qRegisterNormalizedMetaType_QGeoPathRK10QByteArray@Qt_6 6.6.0
 _Z37qRegisterNormalizedMetaType_QGeoShapeRK10QByteArray@Qt_6 6.6.0
 _Z38qRegisterNormalizedMetaType_QGeoCircleRK10QByteArray@Qt_6 6.6.0
 _Z39qRegisterNormalizedMetaType_QGeoAddressRK10QByteArray@Qt_6 6.6.0
 _Z39qRegisterNormalizedMetaType_QGeoPolygonRK10QByteArray@Qt_6 6.6.0
 _Z40qRegisterNormalizedMetaType_QGeoLocationRK10QByteArray@Qt_6 6.6.0
 _Z41qRegisterNormalizedMetaType_QGeoRectangleRK10QByteArray@Qt_6 6.6.0
 _Z42qRegisterNormalizedMetaType_QGeoCoordinateRK10QByteArray@Qt_6 6.6.0
 _Z44qRegisterNormalizedMetaType_QGeoPositionInfoRK10QByteArray@Qt_6 6.6.0
 _Z45qRegisterNormalizedMetaType_QGeoSatelliteInfoRK10QByteArray@Qt_6 6.6.0
 _Z47qRegisterNormalizedMetaType_QGeoAreaMonitorInfoRK10QByteArray@Qt_6 6.6.0
 _Z52qRegisterNormalizedMetaType_QGeoCoordinateObject_ptrRK10QByteArray@Qt_6 6.6.0
 (subst)_Z5qHashRK11QGeoAddress{size_t}@Qt_6 6.6.0
 (subst)_Z5qHashRK12QGeoLocation{size_t}@Qt_6 6.6.0
 (subst)_Z5qHashRK14QGeoCoordinate{size_t}@Qt_6 6.6.0
 (subst)_Z5qHashRK16QGeoPositionInfo{size_t}@Qt_6 6.6.0
 (subst)_Z5qHashRK17QGeoSatelliteInfo{size_t}@Qt_6 6.6.0
 (subst)_Z5qHashRK19QGeoAreaMonitorInfo{size_t}@Qt_6 6.6.0
 (subst)_Z5qHashRK9QGeoShape{size_t}@Qt_6 6.6.0
 _ZGVZN9QMetaType21registerConverterImplI5QListI14QGeoCoordinateE9QIterableI13QMetaSequenceEEEbSt8functionIFbPKvPvEES_S_E10unregister@Qt_6 6.6.0
 _ZGVZN9QMetaType21registerConverterImplI5QListI17QGeoSatelliteInfoE9QIterableI13QMetaSequenceEEEbSt8functionIFbPKvPvEES_S_E10unregister@Qt_6 6.6.0
 _ZGVZN9QMetaType23registerMutableViewImplI5QListI14QGeoCoordinateE9QIterableI13QMetaSequenceEEEbSt8functionIFbPvS8_EES_S_E10unregister@Qt_6 6.6.0
 _ZGVZN9QMetaType23registerMutableViewImplI5QListI17QGeoSatelliteInfoE9QIterableI13QMetaSequenceEEEbSt8functionIFbPvS8_EES_S_E10unregister@Qt_6 6.6.0
 _ZN10QGeoCircle12extendCircleERK14QGeoCoordinate@Qt_6 6.6.0
 _ZN10QGeoCircle16staticMetaObjectE@Qt_6 6.6.0
 _ZN10QGeoCircle9setCenterERK14QGeoCoordinate@Qt_6 6.6.0
 _ZN10QGeoCircle9setRadiusEd@Qt_6 6.6.0
 _ZN10QGeoCircle9translateEdd@Qt_6 6.6.0
 _ZN10QGeoCircleC1ERK14QGeoCoordinated@Qt_6 6.6.0
 _ZN10QGeoCircleC1ERK9QGeoShape@Qt_6 6.6.0
 _ZN10QGeoCircleC1ERKS_@Qt_6 6.6.0
 _ZN10QGeoCircleC1Ev@Qt_6 6.6.0
 _ZN10QGeoCircleC2ERK14QGeoCoordinated@Qt_6 6.6.0
 _ZN10QGeoCircleC2ERK9QGeoShape@Qt_6 6.6.0
 _ZN10QGeoCircleC2ERKS_@Qt_6 6.6.0
 _ZN10QGeoCircleC2Ev@Qt_6 6.6.0
 _ZN10QGeoCircleD1Ev@Qt_6 6.6.0
 _ZN10QGeoCircleD2Ev@Qt_6 6.6.0
 _ZN10QGeoCircleaSERKS_@Qt_6 6.6.0
 _ZN11QGeoAddress10setCountryERK7QString@Qt_6 6.6.0
 _ZN11QGeoAddress11setDistrictERK7QString@Qt_6 6.6.0
 _ZN11QGeoAddress13setPostalCodeERK7QString@Qt_6 6.6.0
 _ZN11QGeoAddress14setCountryCodeERK7QString@Qt_6 6.6.0
 _ZN11QGeoAddress15setStreetNumberERK7QString@Qt_6 6.6.0
 _ZN11QGeoAddress5clearEv@Qt_6 6.6.0
 _ZN11QGeoAddress6equalsERKS_S1_@Qt_6 6.6.0
 _ZN11QGeoAddress7setCityERK7QString@Qt_6 6.6.0
 _ZN11QGeoAddress7setTextERK7QString@Qt_6 6.6.0
 _ZN11QGeoAddress8setStateERK7QString@Qt_6 6.6.0
 _ZN11QGeoAddress9setCountyERK7QString@Qt_6 6.6.0
 _ZN11QGeoAddress9setStreetERK7QString@Qt_6 6.6.0
 _ZN11QGeoAddressC1ERKS_@Qt_6 6.6.0
 _ZN11QGeoAddressC1Ev@Qt_6 6.6.0
 _ZN11QGeoAddressC2ERKS_@Qt_6 6.6.0
 _ZN11QGeoAddressC2Ev@Qt_6 6.6.0
 _ZN11QGeoAddressD1Ev@Qt_6 6.6.0
 _ZN11QGeoAddressD2Ev@Qt_6 6.6.0
 _ZN11QGeoAddressaSERKS_@Qt_6 6.6.0
 (subst)_ZN11QGeoPolygon10removeHoleE{qptrdiff}@Qt_6 6.6.0
 _ZN11QGeoPolygon12setPerimeterERK5QListI14QGeoCoordinateE@Qt_6 6.6.0
 _ZN11QGeoPolygon13addCoordinateERK14QGeoCoordinate@Qt_6 6.6.0
 (subst)_ZN11QGeoPolygon16insertCoordinateE{qptrdiff}RK14QGeoCoordinate@Qt_6 6.6.0
 _ZN11QGeoPolygon16removeCoordinateERK14QGeoCoordinate@Qt_6 6.6.0
 (subst)_ZN11QGeoPolygon16removeCoordinateE{qptrdiff}@Qt_6 6.6.0
 _ZN11QGeoPolygon16staticMetaObjectE@Qt_6 6.6.0
 (subst)_ZN11QGeoPolygon17replaceCoordinateE{qptrdiff}RK14QGeoCoordinate@Qt_6 6.6.0
 _ZN11QGeoPolygon7addHoleERK5QListI14QGeoCoordinateE@Qt_6 6.6.0
 _ZN11QGeoPolygon7addHoleERK8QVariant@Qt_6 6.6.0
 _ZN11QGeoPolygon9translateEdd@Qt_6 6.6.0
 _ZN11QGeoPolygonC1ERK5QListI14QGeoCoordinateE@Qt_6 6.6.0
 _ZN11QGeoPolygonC1ERK9QGeoShape@Qt_6 6.6.0
 _ZN11QGeoPolygonC1ERKS_@Qt_6 6.6.0
 _ZN11QGeoPolygonC1Ev@Qt_6 6.6.0
 _ZN11QGeoPolygonC2ERK5QListI14QGeoCoordinateE@Qt_6 6.6.0
 _ZN11QGeoPolygonC2ERK9QGeoShape@Qt_6 6.6.0
 _ZN11QGeoPolygonC2ERKS_@Qt_6 6.6.0
 _ZN11QGeoPolygonC2Ev@Qt_6 6.6.0
 _ZN11QGeoPolygonD1Ev@Qt_6 6.6.0
 _ZN11QGeoPolygonD2Ev@Qt_6 6.6.0
 _ZN11QGeoPolygonaSERKS_@Qt_6 6.6.0
 _ZN12QGeoLocation10setAddressERK11QGeoAddress@Qt_6 6.6.0
 _ZN12QGeoLocation13setCoordinateERK14QGeoCoordinate@Qt_6 6.6.0
 _ZN12QGeoLocation16setBoundingShapeERK9QGeoShape@Qt_6 6.6.0
 _ZN12QGeoLocation21setExtendedAttributesERK4QMapI7QString8QVariantE@Qt_6 6.6.0
 _ZN12QGeoLocation6equalsERKS_S1_@Qt_6 6.6.0
 _ZN12QGeoLocationC1ERKS_@Qt_6 6.6.0
 _ZN12QGeoLocationC1Ev@Qt_6 6.6.0
 _ZN12QGeoLocationC2ERKS_@Qt_6 6.6.0
 _ZN12QGeoLocationC2Ev@Qt_6 6.6.0
 _ZN12QGeoLocationD1Ev@Qt_6 6.6.0
 _ZN12QGeoLocationD2Ev@Qt_6 6.6.0
 _ZN12QGeoLocationaSERKS_@Qt_6 6.6.0
 _ZN12QWebMercator15coordToMercatorERK14QGeoCoordinate@Qt_6_PRIVATE_API 6.6.0
 _ZN12QWebMercator15mercatorToCoordERK15QDoubleVector2D@Qt_6_PRIVATE_API 6.6.0
 _ZN12QWebMercator23coordinateInterpolationERK14QGeoCoordinateS2_d@Qt_6_PRIVATE_API 6.6.0
 _ZN12QWebMercator7realmodEdd@Qt_6_PRIVATE_API 6.6.0
 _ZN13QClipperUtils10setPolygonERK5QListI15QDoubleVector2DE@Qt_6_PRIVATE_API 6.6.0
 _ZN13QClipperUtils12clearClipperEv@Qt_6_PRIVATE_API 6.6.0
 _ZN13QClipperUtils14addClipPolygonERK5QListI15QDoubleVector2DE@Qt_6_PRIVATE_API 6.6.0
 _ZN13QClipperUtils14addSubjectPathERK5QListI15QDoubleVector2DEb@Qt_6_PRIVATE_API 6.6.0
 _ZN13QClipperUtils14pointInPolygonERK15QDoubleVector2DRK5QListIS0_E@Qt_6_PRIVATE_API 6.6.0
 _ZN13QClipperUtils18clipperScaleFactorEv@Qt_6_PRIVATE_API 6.6.0
 _ZN13QClipperUtils7executeENS_9OperationENS_12PolyFillTypeES1_@Qt_6_PRIVATE_API 6.6.0
 _ZN13QClipperUtilsC1ERKS_@Qt_6_PRIVATE_API 6.6.0
 _ZN13QClipperUtilsC1Ev@Qt_6_PRIVATE_API 6.6.0
 _ZN13QClipperUtilsC2ERKS_@Qt_6_PRIVATE_API 6.6.0
 _ZN13QClipperUtilsC2Ev@Qt_6_PRIVATE_API 6.6.0
 _ZN13QClipperUtilsD1Ev@Qt_6_PRIVATE_API 6.6.0
 _ZN13QClipperUtilsD2Ev@Qt_6_PRIVATE_API 6.6.0
 _ZN13QGeoPathEager16staticMetaObjectE@Qt_6_PRIVATE_API 6.6.0
 _ZN13QGeoPathEagerC1ERK5QListI14QGeoCoordinateERKd@Qt_6_PRIVATE_API 6.6.0
 _ZN13QGeoPathEagerC1ERK8QGeoPath@Qt_6_PRIVATE_API 6.6.0
 _ZN13QGeoPathEagerC1ERK9QGeoShape@Qt_6_PRIVATE_API 6.6.0
 _ZN13QGeoPathEagerC1Ev@Qt_6_PRIVATE_API 6.6.0
 _ZN13QGeoPathEagerC2ERK5QListI14QGeoCoordinateERKd@Qt_6_PRIVATE_API 6.6.0
 _ZN13QGeoPathEagerC2ERK8QGeoPath@Qt_6_PRIVATE_API 6.6.0
 _ZN13QGeoPathEagerC2ERK9QGeoShape@Qt_6_PRIVATE_API 6.6.0
 _ZN13QGeoPathEagerC2Ev@Qt_6_PRIVATE_API 6.6.0
 _ZN13QGeoPathEagerD1Ev@Qt_6_PRIVATE_API 6.6.0
 _ZN13QGeoPathEagerD2Ev@Qt_6_PRIVATE_API 6.6.0
 _ZN13QGeoRectangle10setTopLeftERK14QGeoCoordinate@Qt_6 6.6.0
 _ZN13QGeoRectangle11setTopRightERK14QGeoCoordinate@Qt_6 6.6.0
 _ZN13QGeoRectangle13setBottomLeftERK14QGeoCoordinate@Qt_6 6.6.0
 _ZN13QGeoRectangle14setBottomRightERK14QGeoCoordinate@Qt_6 6.6.0
 _ZN13QGeoRectangle15extendRectangleERK14QGeoCoordinate@Qt_6 6.6.0
 _ZN13QGeoRectangle16staticMetaObjectE@Qt_6 6.6.0
 _ZN13QGeoRectangle8setWidthEd@Qt_6 6.6.0
 _ZN13QGeoRectangle9setCenterERK14QGeoCoordinate@Qt_6 6.6.0
 _ZN13QGeoRectangle9setHeightEd@Qt_6 6.6.0
 _ZN13QGeoRectangle9translateEdd@Qt_6 6.6.0
 _ZN13QGeoRectangleC1ERK14QGeoCoordinateS2_@Qt_6 6.6.0
 _ZN13QGeoRectangleC1ERK14QGeoCoordinatedd@Qt_6 6.6.0
 _ZN13QGeoRectangleC1ERK5QListI14QGeoCoordinateE@Qt_6 6.6.0
 _ZN13QGeoRectangleC1ERK9QGeoShape@Qt_6 6.6.0
 _ZN13QGeoRectangleC1ERKS_@Qt_6 6.6.0
 _ZN13QGeoRectangleC1Ev@Qt_6 6.6.0
 _ZN13QGeoRectangleC2ERK14QGeoCoordinateS2_@Qt_6 6.6.0
 _ZN13QGeoRectangleC2ERK14QGeoCoordinatedd@Qt_6 6.6.0
 _ZN13QGeoRectangleC2ERK5QListI14QGeoCoordinateE@Qt_6 6.6.0
 _ZN13QGeoRectangleC2ERK9QGeoShape@Qt_6 6.6.0
 _ZN13QGeoRectangleC2ERKS_@Qt_6 6.6.0
 _ZN13QGeoRectangleC2Ev@Qt_6 6.6.0
 _ZN13QGeoRectangleD1Ev@Qt_6 6.6.0
 _ZN13QGeoRectangleD2Ev@Qt_6 6.6.0
 _ZN13QGeoRectangleaSERKS_@Qt_6 6.6.0
 _ZN13QGeoRectangleoRERKS_@Qt_6 6.6.0
 _ZN13QMetaSequence12MetaSequenceI5QListI14QGeoCoordinateEE5valueE@Qt_6 6.6.0
 _ZN13QMetaSequence12MetaSequenceI5QListI17QGeoSatelliteInfoEE5valueE@Qt_6 6.6.0
 _ZN14QGeoCoordinate11setAltitudeEd@Qt_6 6.6.0
 _ZN14QGeoCoordinate11setLatitudeEd@Qt_6 6.6.0
 _ZN14QGeoCoordinate12dataStreamInER11QDataStreamRS_@Qt_6 6.6.0
 _ZN14QGeoCoordinate12setLongitudeEd@Qt_6 6.6.0
 _ZN14QGeoCoordinate13dataStreamOutER11QDataStreamRKS_@Qt_6 6.6.0
 _ZN14QGeoCoordinate14debugStreamingE6QDebugRKS_@Qt_6 6.6.0
 _ZN14QGeoCoordinate16staticMetaObjectE@Qt_6 6.6.0
 _ZN14QGeoCoordinate6equalsERKS_S1_@Qt_6 6.6.0
 _ZN14QGeoCoordinateC1ER21QGeoCoordinatePrivate@Qt_6_PRIVATE_API 6.6.0
 _ZN14QGeoCoordinateC1ERKS_@Qt_6 6.6.0
 _ZN14QGeoCoordinateC1Edd@Qt_6 6.6.0
 _ZN14QGeoCoordinateC1Eddd@Qt_6 6.6.0
 _ZN14QGeoCoordinateC1Ev@Qt_6 6.6.0
 _ZN14QGeoCoordinateC2ER21QGeoCoordinatePrivate@Qt_6_PRIVATE_API 6.6.0
 _ZN14QGeoCoordinateC2ERKS_@Qt_6 6.6.0
 _ZN14QGeoCoordinateC2Edd@Qt_6 6.6.0
 _ZN14QGeoCoordinateC2Eddd@Qt_6 6.6.0
 _ZN14QGeoCoordinateC2Ev@Qt_6 6.6.0
 _ZN14QGeoCoordinateD1Ev@Qt_6 6.6.0
 _ZN14QGeoCoordinateD2Ev@Qt_6 6.6.0
 _ZN14QGeoCoordinateaSERKS_@Qt_6 6.6.0
 _ZN14QLocationUtils11getNmeaTimeERK10QByteArrayP5QTime@Qt_6_PRIVATE_API 6.6.0
 _ZN14QLocationUtils14getNmeaLatLongERK10QByteArraycS2_cPdS3_@Qt_6_PRIVATE_API 6.6.0
 _ZN14QLocationUtils18getPosInfoFromNmeaE14QByteArrayViewP16QGeoPositionInfodPb@Qt_6_PRIVATE_API 6.6.0
 _ZN14QLocationUtils18getSatInfoFromNmeaE14QByteArrayViewR5QListI17QGeoSatelliteInfoERNS2_15SatelliteSystemE@Qt_6_PRIVATE_API 6.6.0
 _ZN14QLocationUtils18getSatelliteSystemE14QByteArrayView@Qt_6_PRIVATE_API 6.6.0
 _ZN14QLocationUtils19getNmeaSentenceTypeE14QByteArrayView@Qt_6_PRIVATE_API 6.6.0
 _ZN14QLocationUtils19getSatInUseFromNmeaE14QByteArrayViewR5QListIiE@Qt_6_PRIVATE_API 6.6.0
 _ZN14QLocationUtils20hasValidNmeaChecksumE14QByteArrayView@Qt_6_PRIVATE_API 6.6.0
 _ZN14QLocationUtils31getSatelliteSystemBySatelliteIdEi@Qt_6_PRIVATE_API 6.6.0
 _ZN15QDoubleVector2D9normalizeEv@Qt_6_PRIVATE_API 6.6.0
 _ZN15QDoubleVector2DC1ERK15QDoubleVector3D@Qt_6_PRIVATE_API 6.6.0
 _ZN15QDoubleVector2DC2ERK15QDoubleVector3D@Qt_6_PRIVATE_API 6.6.0
 _ZN15QDoubleVector3D6normalERKS_S1_@Qt_6_PRIVATE_API 6.6.0
 _ZN15QDoubleVector3D6normalERKS_S1_S1_@Qt_6_PRIVATE_API 6.6.0
 _ZN15QDoubleVector3D9normalizeEv@Qt_6_PRIVATE_API 6.6.0
 _ZN15QGeoPathPrivate13addCoordinateERK14QGeoCoordinate@Qt_6_PRIVATE_API 6.6.0
 (subst)_ZN15QGeoPathPrivate16insertCoordinateE{qptrdiff}RK14QGeoCoordinate@Qt_6_PRIVATE_API 6.6.0
 _ZN15QGeoPathPrivate16removeCoordinateERK14QGeoCoordinate@Qt_6_PRIVATE_API 6.6.0
 (subst)_ZN15QGeoPathPrivate16removeCoordinateE{qptrdiff}@Qt_6_PRIVATE_API 6.6.0
 (subst)_ZN15QGeoPathPrivate17replaceCoordinateE{qptrdiff}RK14QGeoCoordinate@Qt_6_PRIVATE_API 6.6.0
 _ZN15QGeoPathPrivate18computeBoundingBoxEv@Qt_6_PRIVATE_API 6.6.0
 _ZN15QGeoPathPrivate7setPathERK5QListI14QGeoCoordinateE@Qt_6_PRIVATE_API 6.6.0
 _ZN15QGeoPathPrivate8setWidthERKd@Qt_6_PRIVATE_API 6.6.0
 _ZN15QGeoPathPrivate9clearPathEv@Qt_6_PRIVATE_API 6.6.0
 _ZN15QGeoPathPrivate9markDirtyEv@Qt_6_PRIVATE_API 6.6.0
 _ZN15QGeoPathPrivate9translateEdd@Qt_6_PRIVATE_API 6.6.0
 _ZN15QGeoPathPrivateC1ERK5QListI14QGeoCoordinateEd@Qt_6_PRIVATE_API 6.6.0
 _ZN15QGeoPathPrivateC1Ev@Qt_6_PRIVATE_API 6.6.0
 _ZN15QGeoPathPrivateC2ERK5QListI14QGeoCoordinateEd@Qt_6_PRIVATE_API 6.6.0
 _ZN15QGeoPathPrivateC2Ev@Qt_6_PRIVATE_API 6.6.0
 _ZN15QGeoPathPrivateD0Ev@Qt_6_PRIVATE_API 6.6.0
 _ZN15QGeoPathPrivateD1Ev@Qt_6_PRIVATE_API 6.6.0
 _ZN15QGeoPathPrivateD2Ev@Qt_6_PRIVATE_API 6.6.0
 _ZN16QDoubleMatrix4x411perspectiveEdddd@Qt_6_PRIVATE_API 6.6.0
 _ZN16QDoubleMatrix4x415flipCoordinatesEv@Qt_6_PRIVATE_API 6.6.0
 _ZN16QDoubleMatrix4x415projectedRotateEddddd@Qt_6_PRIVATE_API 6.6.0
 _ZN16QDoubleMatrix4x45orthoERK5QRect@Qt_6_PRIVATE_API 6.6.0
 _ZN16QDoubleMatrix4x45orthoERK6QRectF@Qt_6_PRIVATE_API 6.6.0
 _ZN16QDoubleMatrix4x45orthoEdddddd@Qt_6_PRIVATE_API 6.6.0
 _ZN16QDoubleMatrix4x45scaleERK15QDoubleVector3D@Qt_6_PRIVATE_API 6.6.0
 _ZN16QDoubleMatrix4x45scaleEd@Qt_6_PRIVATE_API 6.6.0
 _ZN16QDoubleMatrix4x45scaleEdd@Qt_6_PRIVATE_API 6.6.0
 _ZN16QDoubleMatrix4x45scaleEddd@Qt_6_PRIVATE_API 6.6.0
 _ZN16QDoubleMatrix4x46lookAtERK15QDoubleVector3DS2_S2_@Qt_6_PRIVATE_API 6.6.0
 _ZN16QDoubleMatrix4x46rotateEdRK15QDoubleVector3D@Qt_6_PRIVATE_API 6.6.0
 _ZN16QDoubleMatrix4x46rotateEdddd@Qt_6_PRIVATE_API 6.6.0
 _ZN16QDoubleMatrix4x47frustumEdddddd@Qt_6_PRIVATE_API 6.6.0
 _ZN16QDoubleMatrix4x48optimizeEv@Qt_6_PRIVATE_API 6.6.0
 _ZN16QDoubleMatrix4x48viewportEdddddd@Qt_6_PRIVATE_API 6.6.0
 _ZN16QDoubleMatrix4x49translateERK15QDoubleVector3D@Qt_6_PRIVATE_API 6.6.0
 _ZN16QDoubleMatrix4x49translateEdd@Qt_6_PRIVATE_API 6.6.0
 _ZN16QDoubleMatrix4x49translateEddd@Qt_6_PRIVATE_API 6.6.0
 _ZN16QDoubleMatrix4x4C1EPKd@Qt_6_PRIVATE_API 6.6.0
 _ZN16QDoubleMatrix4x4C1EPKdii@Qt_6_PRIVATE_API 6.6.0
 _ZN16QDoubleMatrix4x4C2EPKd@Qt_6_PRIVATE_API 6.6.0
 _ZN16QDoubleMatrix4x4C2EPKdii@Qt_6_PRIVATE_API 6.6.0
 _ZN16QDoubleMatrix4x4dVEd@Qt_6_PRIVATE_API 6.6.0
 _ZN16QGeoPolygonEager16staticMetaObjectE@Qt_6_PRIVATE_API 6.6.0
 _ZN16QGeoPolygonEagerC1ERK11QGeoPolygon@Qt_6_PRIVATE_API 6.6.0
 _ZN16QGeoPolygonEagerC1ERK5QListI14QGeoCoordinateE@Qt_6_PRIVATE_API 6.6.0
 _ZN16QGeoPolygonEagerC1ERK9QGeoShape@Qt_6_PRIVATE_API 6.6.0
 _ZN16QGeoPolygonEagerC1Ev@Qt_6_PRIVATE_API 6.6.0
 _ZN16QGeoPolygonEagerC2ERK11QGeoPolygon@Qt_6_PRIVATE_API 6.6.0
 _ZN16QGeoPolygonEagerC2ERK5QListI14QGeoCoordinateE@Qt_6_PRIVATE_API 6.6.0
 _ZN16QGeoPolygonEagerC2ERK9QGeoShape@Qt_6_PRIVATE_API 6.6.0
 _ZN16QGeoPolygonEagerC2Ev@Qt_6_PRIVATE_API 6.6.0
 _ZN16QGeoPolygonEagerD1Ev@Qt_6_PRIVATE_API 6.6.0
 _ZN16QGeoPolygonEagerD2Ev@Qt_6_PRIVATE_API 6.6.0
 _ZN16QGeoPositionInfo12dataStreamInER11QDataStreamRNS_9AttributeE@Qt_6 6.6.0
 _ZN16QGeoPositionInfo12dataStreamInER11QDataStreamRS_@Qt_6 6.6.0
 _ZN16QGeoPositionInfo12setAttributeENS_9AttributeEd@Qt_6 6.6.0
 _ZN16QGeoPositionInfo12setTimestampERK9QDateTime@Qt_6 6.6.0
 _ZN16QGeoPositionInfo13dataStreamOutER11QDataStreamNS_9AttributeE@Qt_6 6.6.0
 _ZN16QGeoPositionInfo13dataStreamOutER11QDataStreamRKS_@Qt_6 6.6.0
 _ZN16QGeoPositionInfo13setCoordinateERK14QGeoCoordinate@Qt_6 6.6.0
 _ZN16QGeoPositionInfo14debugStreamingE6QDebugRKS_@Qt_6 6.6.0
 _ZN16QGeoPositionInfo15removeAttributeENS_9AttributeE@Qt_6 6.6.0
 _ZN16QGeoPositionInfo6detachEv@Qt_6 6.6.0
 _ZN16QGeoPositionInfo6equalsERKS_S1_@Qt_6 6.6.0
 _ZN16QGeoPositionInfoC1ER23QGeoPositionInfoPrivate@Qt_6_PRIVATE_API 6.6.0
 _ZN16QGeoPositionInfoC1ERK14QGeoCoordinateRK9QDateTime@Qt_6 6.6.0
 _ZN16QGeoPositionInfoC1ERKS_@Qt_6 6.6.0
 _ZN16QGeoPositionInfoC1Ev@Qt_6 6.6.0
 _ZN16QGeoPositionInfoC2ER23QGeoPositionInfoPrivate@Qt_6_PRIVATE_API 6.6.0
 _ZN16QGeoPositionInfoC2ERK14QGeoCoordinateRK9QDateTime@Qt_6 6.6.0
 _ZN16QGeoPositionInfoC2ERKS_@Qt_6 6.6.0
 _ZN16QGeoPositionInfoC2Ev@Qt_6 6.6.0
 _ZN16QGeoPositionInfoD1Ev@Qt_6 6.6.0
 _ZN16QGeoPositionInfoD2Ev@Qt_6 6.6.0
 _ZN16QGeoPositionInfoaSERKS_@Qt_6 6.6.0
 _ZN17QGeoSatelliteInfo12dataStreamInER11QDataStreamRS_@Qt_6 6.6.0
 _ZN17QGeoSatelliteInfo12setAttributeENS_9AttributeEd@Qt_6 6.6.0
 _ZN17QGeoSatelliteInfo13dataStreamOutER11QDataStreamRKS_@Qt_6 6.6.0
 _ZN17QGeoSatelliteInfo14debugStreamingE6QDebugRKS_@Qt_6 6.6.0
 _ZN17QGeoSatelliteInfo15removeAttributeENS_9AttributeE@Qt_6 6.6.0
 _ZN17QGeoSatelliteInfo16staticMetaObjectE@Qt_6 6.6.0
 _ZN17QGeoSatelliteInfo17setSignalStrengthEi@Qt_6 6.6.0
 _ZN17QGeoSatelliteInfo18setSatelliteSystemENS_15SatelliteSystemE@Qt_6 6.6.0
 _ZN17QGeoSatelliteInfo22setSatelliteIdentifierEi@Qt_6 6.6.0
 _ZN17QGeoSatelliteInfo6detachEv@Qt_6 6.6.0
 _ZN17QGeoSatelliteInfo6equalsERKS_S1_@Qt_6 6.6.0
 _ZN17QGeoSatelliteInfoC1ER24QGeoSatelliteInfoPrivate@Qt_6_PRIVATE_API 6.6.0
 _ZN17QGeoSatelliteInfoC1ERKS_@Qt_6 6.6.0
 _ZN17QGeoSatelliteInfoC1Ev@Qt_6 6.6.0
 _ZN17QGeoSatelliteInfoC2ER24QGeoSatelliteInfoPrivate@Qt_6_PRIVATE_API 6.6.0
 _ZN17QGeoSatelliteInfoC2ERKS_@Qt_6 6.6.0
 _ZN17QGeoSatelliteInfoC2Ev@Qt_6 6.6.0
 _ZN17QGeoSatelliteInfoD1Ev@Qt_6 6.6.0
 _ZN17QGeoSatelliteInfoD2Ev@Qt_6 6.6.0
 _ZN17QGeoSatelliteInfoaSERKS_@Qt_6 6.6.0
 (subst)_ZN18QGeoPolygonPrivate10removeHoleE{qptrdiff}@Qt_6_PRIVATE_API 6.6.0
 _ZN18QGeoPolygonPrivate17updateClipperPathEv@Qt_6_PRIVATE_API 6.6.0
 _ZN18QGeoPolygonPrivate7addHoleERK5QListI14QGeoCoordinateE@Qt_6_PRIVATE_API 6.6.0
 _ZN18QGeoPolygonPrivate9markDirtyEv@Qt_6_PRIVATE_API 6.6.0
 _ZN18QGeoPolygonPrivate9translateEdd@Qt_6_PRIVATE_API 6.6.0
 _ZN18QGeoPolygonPrivateC1ERK5QListI14QGeoCoordinateE@Qt_6_PRIVATE_API 6.6.0
 _ZN18QGeoPolygonPrivateC1Ev@Qt_6_PRIVATE_API 6.6.0
 _ZN18QGeoPolygonPrivateC2ERK5QListI14QGeoCoordinateE@Qt_6_PRIVATE_API 6.6.0
 _ZN18QGeoPolygonPrivateC2Ev@Qt_6_PRIVATE_API 6.6.0
 _ZN18QGeoPolygonPrivateD0Ev@Qt_6_PRIVATE_API 6.6.0
 _ZN18QGeoPolygonPrivateD1Ev@Qt_6_PRIVATE_API 6.6.0
 _ZN18QGeoPolygonPrivateD2Ev@Qt_6_PRIVATE_API 6.6.0
 (optional=templinst)_ZN18QSharedDataPointerI18QGeoAddressPrivateED1Ev@Qt_6_PRIVATE_API 6.6.0
 (optional=templinst)_ZN18QSharedDataPointerI18QGeoAddressPrivateED2Ev@Qt_6_PRIVATE_API 6.6.0
 (optional=templinst)_ZN18QSharedDataPointerI19QGeoLocationPrivateED1Ev@Qt_6_PRIVATE_API 6.6.0
 (optional=templinst)_ZN18QSharedDataPointerI19QGeoLocationPrivateED2Ev@Qt_6_PRIVATE_API 6.6.0
 (optional=templinst)_ZN18QSharedDataPointerI21QGeoCoordinatePrivateED1Ev@Qt_6_PRIVATE_API 6.6.0
 (optional=templinst)_ZN18QSharedDataPointerI21QGeoCoordinatePrivateED2Ev@Qt_6_PRIVATE_API 6.6.0
 _ZN19QGeoAreaMonitorInfo12dataStreamInER11QDataStreamRS_@Qt_6 6.6.0
 _ZN19QGeoAreaMonitorInfo13dataStreamOutER11QDataStreamRKS_@Qt_6 6.6.0
 _ZN19QGeoAreaMonitorInfo13setExpirationERK9QDateTime@Qt_6 6.6.0
 _ZN19QGeoAreaMonitorInfo13setPersistentEb@Qt_6 6.6.0
 _ZN19QGeoAreaMonitorInfo14debugStreamingE6QDebugRKS_@Qt_6 6.6.0
 _ZN19QGeoAreaMonitorInfo25setNotificationParametersERK4QMapI7QString8QVariantE@Qt_6 6.6.0
 _ZN19QGeoAreaMonitorInfo6detachEv@Qt_6 6.6.0
 _ZN19QGeoAreaMonitorInfo6equalsERKS_S1_@Qt_6 6.6.0
 _ZN19QGeoAreaMonitorInfo7setAreaERK9QGeoShape@Qt_6 6.6.0
 _ZN19QGeoAreaMonitorInfo7setNameERK7QString@Qt_6 6.6.0
 _ZN19QGeoAreaMonitorInfoC1ERK7QString@Qt_6 6.6.0
 _ZN19QGeoAreaMonitorInfoC1ERKS_@Qt_6 6.6.0
 _ZN19QGeoAreaMonitorInfoC2ERK7QString@Qt_6 6.6.0
 _ZN19QGeoAreaMonitorInfoC2ERKS_@Qt_6 6.6.0
 _ZN19QGeoAreaMonitorInfoD1Ev@Qt_6 6.6.0
 _ZN19QGeoAreaMonitorInfoD2Ev@Qt_6 6.6.0
 _ZN19QGeoAreaMonitorInfoaSERKS_@Qt_6 6.6.0
 _ZN20QGeoCoordinateObject11qt_metacallEN11QMetaObject4CallEiPPv@Qt_6_PRIVATE_API 6.6.0
 _ZN20QGeoCoordinateObject11qt_metacastEPKc@Qt_6_PRIVATE_API 6.6.0
 _ZN20QGeoCoordinateObject13setCoordinateERK14QGeoCoordinate@Qt_6_PRIVATE_API 6.6.0
 _ZN20QGeoCoordinateObject16staticMetaObjectE@Qt_6_PRIVATE_API 6.6.0
 _ZN20QGeoCoordinateObject17coordinateChangedEv@Qt_6_PRIVATE_API 6.6.0
 _ZN20QGeoCoordinateObject18bindableCoordinateEv@Qt_6_PRIVATE_API 6.6.0
 _ZN20QGeoCoordinateObjectC1EP7QObject@Qt_6_PRIVATE_API 6.6.0
 _ZN20QGeoCoordinateObjectC1ERK14QGeoCoordinateP7QObject@Qt_6_PRIVATE_API 6.6.0
 _ZN20QGeoCoordinateObjectC2EP7QObject@Qt_6_PRIVATE_API 6.6.0
 _ZN20QGeoCoordinateObjectC2ERK14QGeoCoordinateP7QObject@Qt_6_PRIVATE_API 6.6.0
 _ZN20QGeoCoordinateObjectD0Ev@Qt_6_PRIVATE_API 6.6.0
 _ZN20QGeoCoordinateObjectD1Ev@Qt_6_PRIVATE_API 6.6.0
 _ZN20QGeoCoordinateObjectD2Ev@Qt_6_PRIVATE_API 6.6.0
 _ZN20QGeoPathPrivateEager13addCoordinateERK14QGeoCoordinate@Qt_6_PRIVATE_API 6.6.0
 _ZN20QGeoPathPrivateEager17updateBoundingBoxEv@Qt_6_PRIVATE_API 6.6.0
 _ZN20QGeoPathPrivateEager18computeBoundingBoxEv@Qt_6_PRIVATE_API 6.6.0
 _ZN20QGeoPathPrivateEager9markDirtyEv@Qt_6_PRIVATE_API 6.6.0
 _ZN20QGeoPathPrivateEager9translateEdd@Qt_6_PRIVATE_API 6.6.0
 _ZN20QGeoPathPrivateEagerC1ERK5QListI14QGeoCoordinateEd@Qt_6_PRIVATE_API 6.6.0
 _ZN20QGeoPathPrivateEagerC1Ev@Qt_6_PRIVATE_API 6.6.0
 _ZN20QGeoPathPrivateEagerC2ERK5QListI14QGeoCoordinateEd@Qt_6_PRIVATE_API 6.6.0
 _ZN20QGeoPathPrivateEagerC2Ev@Qt_6_PRIVATE_API 6.6.0
 _ZN20QGeoPathPrivateEagerD0Ev@Qt_6_PRIVATE_API 6.6.0
 _ZN20QGeoPathPrivateEagerD1Ev@Qt_6_PRIVATE_API 6.6.0
 _ZN20QGeoPathPrivateEagerD2Ev@Qt_6_PRIVATE_API 6.6.0
 _ZN21QGeoAreaMonitorSource10areaExitedERK19QGeoAreaMonitorInfoRK16QGeoPositionInfo@Qt_6 6.6.0
 _ZN21QGeoAreaMonitorSource11areaEnteredERK19QGeoAreaMonitorInfoRK16QGeoPositionInfo@Qt_6 6.6.0
 _ZN21QGeoAreaMonitorSource11qt_metacallEN11QMetaObject4CallEiPPv@Qt_6 6.6.0
 _ZN21QGeoAreaMonitorSource11qt_metacastEPKc@Qt_6 6.6.0
 _ZN21QGeoAreaMonitorSource12createSourceERK7QStringP7QObject@Qt_6 6.6.0
 _ZN21QGeoAreaMonitorSource13errorOccurredENS_5ErrorE@Qt_6 6.6.0
 _ZN21QGeoAreaMonitorSource14monitorExpiredERK19QGeoAreaMonitorInfo@Qt_6 6.6.0
 _ZN21QGeoAreaMonitorSource16availableSourcesEv@Qt_6 6.6.0
 _ZN21QGeoAreaMonitorSource16staticMetaObjectE@Qt_6 6.6.0
 _ZN21QGeoAreaMonitorSource18setBackendPropertyERK7QStringRK8QVariant@Qt_6 6.6.0
 _ZN21QGeoAreaMonitorSource19createDefaultSourceEP7QObject@Qt_6 6.6.0
 _ZN21QGeoAreaMonitorSource21setPositionInfoSourceEP22QGeoPositionInfoSource@Qt_6 6.6.0
 _ZN21QGeoAreaMonitorSourceC1EP7QObject@Qt_6 6.6.0
 _ZN21QGeoAreaMonitorSourceC2EP7QObject@Qt_6 6.6.0
 _ZN21QGeoAreaMonitorSourceD0Ev@Qt_6 6.6.0
 _ZN21QGeoAreaMonitorSourceD1Ev@Qt_6 6.6.0
 _ZN21QGeoAreaMonitorSourceD2Ev@Qt_6 6.6.0
 _ZN22QGeoPositionInfoSource11qt_metacallEN11QMetaObject4CallEiPPv@Qt_6 6.6.0
 _ZN22QGeoPositionInfoSource11qt_metacastEPKc@Qt_6 6.6.0
 _ZN22QGeoPositionInfoSource12createSourceERK7QStringP7QObject@Qt_6 6.6.0
 _ZN22QGeoPositionInfoSource12createSourceERK7QStringRK4QMapIS0_8QVariantEP7QObject@Qt_6 6.6.0
 _ZN22QGeoPositionInfoSource13errorOccurredENS_5ErrorE@Qt_6 6.6.0
 _ZN22QGeoPositionInfoSource15positionUpdatedERK16QGeoPositionInfo@Qt_6 6.6.0
 _ZN22QGeoPositionInfoSource16availableSourcesEv@Qt_6 6.6.0
 _ZN22QGeoPositionInfoSource16staticMetaObjectE@Qt_6 6.6.0
 _ZN22QGeoPositionInfoSource17setUpdateIntervalEi@Qt_6 6.6.0
 _ZN22QGeoPositionInfoSource18setBackendPropertyERK7QStringRK8QVariant@Qt_6 6.6.0
 _ZN22QGeoPositionInfoSource19createDefaultSourceEP7QObject@Qt_6 6.6.0
 _ZN22QGeoPositionInfoSource19createDefaultSourceERK4QMapI7QString8QVariantEP7QObject@Qt_6 6.6.0
 _ZN22QGeoPositionInfoSource22bindableUpdateIntervalEv@Qt_6 6.6.0
 _ZN22QGeoPositionInfoSource30setPreferredPositioningMethodsE6QFlagsINS_17PositioningMethodEE@Qt_6 6.6.0
 _ZN22QGeoPositionInfoSource34supportedPositioningMethodsChangedEv@Qt_6 6.6.0
 _ZN22QGeoPositionInfoSource35bindablePreferredPositioningMethodsEv@Qt_6 6.6.0
 _ZN22QGeoPositionInfoSourceC1EP7QObject@Qt_6 6.6.0
 _ZN22QGeoPositionInfoSourceC1ER29QGeoPositionInfoSourcePrivateP7QObject@Qt_6_PRIVATE_API 6.6.0
 _ZN22QGeoPositionInfoSourceC2EP7QObject@Qt_6 6.6.0
 _ZN22QGeoPositionInfoSourceC2ER29QGeoPositionInfoSourcePrivateP7QObject@Qt_6_PRIVATE_API 6.6.0
 _ZN22QGeoPositionInfoSourceD0Ev@Qt_6 6.6.0
 _ZN22QGeoPositionInfoSourceD1Ev@Qt_6 6.6.0
 _ZN22QGeoPositionInfoSourceD2Ev@Qt_6 6.6.0
 _ZN23QGeoPolygonPrivateEager13addCoordinateERK14QGeoCoordinate@Qt_6_PRIVATE_API 6.6.0
 _ZN23QGeoPolygonPrivateEager17updateBoundingBoxEv@Qt_6_PRIVATE_API 6.6.0
 _ZN23QGeoPolygonPrivateEager18computeBoundingBoxEv@Qt_6_PRIVATE_API 6.6.0
 _ZN23QGeoPolygonPrivateEager9markDirtyEv@Qt_6_PRIVATE_API 6.6.0
 _ZN23QGeoPolygonPrivateEager9translateEdd@Qt_6_PRIVATE_API 6.6.0
 _ZN23QGeoPolygonPrivateEagerC1ERK5QListI14QGeoCoordinateE@Qt_6_PRIVATE_API 6.6.0
 _ZN23QGeoPolygonPrivateEagerC1Ev@Qt_6_PRIVATE_API 6.6.0
 _ZN23QGeoPolygonPrivateEagerC2ERK5QListI14QGeoCoordinateE@Qt_6_PRIVATE_API 6.6.0
 _ZN23QGeoPolygonPrivateEagerC2Ev@Qt_6_PRIVATE_API 6.6.0
 _ZN23QGeoPolygonPrivateEagerD0Ev@Qt_6_PRIVATE_API 6.6.0
 _ZN23QGeoPolygonPrivateEagerD1Ev@Qt_6_PRIVATE_API 6.6.0
 _ZN23QGeoPolygonPrivateEagerD2Ev@Qt_6_PRIVATE_API 6.6.0
 _ZN23QGeoSatelliteInfoSource11qt_metacallEN11QMetaObject4CallEiPPv@Qt_6 6.6.0
 _ZN23QGeoSatelliteInfoSource11qt_metacastEPKc@Qt_6 6.6.0
 _ZN23QGeoSatelliteInfoSource12createSourceERK7QStringP7QObject@Qt_6 6.6.0
 _ZN23QGeoSatelliteInfoSource12createSourceERK7QStringRK4QMapIS0_8QVariantEP7QObject@Qt_6 6.6.0
 _ZN23QGeoSatelliteInfoSource13errorOccurredENS_5ErrorE@Qt_6 6.6.0
 _ZN23QGeoSatelliteInfoSource16availableSourcesEv@Qt_6 6.6.0
 _ZN23QGeoSatelliteInfoSource16staticMetaObjectE@Qt_6 6.6.0
 _ZN23QGeoSatelliteInfoSource17setUpdateIntervalEi@Qt_6 6.6.0
 _ZN23QGeoSatelliteInfoSource18setBackendPropertyERK7QStringRK8QVariant@Qt_6 6.6.0
 _ZN23QGeoSatelliteInfoSource19createDefaultSourceEP7QObject@Qt_6 6.6.0
 _ZN23QGeoSatelliteInfoSource19createDefaultSourceERK4QMapI7QString8QVariantEP7QObject@Qt_6 6.6.0
 _ZN23QGeoSatelliteInfoSource22bindableUpdateIntervalEv@Qt_6 6.6.0
 _ZN23QGeoSatelliteInfoSource22satellitesInUseUpdatedERK5QListI17QGeoSatelliteInfoE@Qt_6 6.6.0
 _ZN23QGeoSatelliteInfoSource23satellitesInViewUpdatedERK5QListI17QGeoSatelliteInfoE@Qt_6 6.6.0
 _ZN23QGeoSatelliteInfoSourceC1EP7QObject@Qt_6 6.6.0
 _ZN23QGeoSatelliteInfoSourceC1ER30QGeoSatelliteInfoSourcePrivateP7QObject@Qt_6_PRIVATE_API 6.6.0
 _ZN23QGeoSatelliteInfoSourceC2EP7QObject@Qt_6 6.6.0
 _ZN23QGeoSatelliteInfoSourceC2ER30QGeoSatelliteInfoSourcePrivateP7QObject@Qt_6_PRIVATE_API 6.6.0
 _ZN23QGeoSatelliteInfoSourceD0Ev@Qt_6 6.6.0
 _ZN23QGeoSatelliteInfoSourceD1Ev@Qt_6 6.6.0
 _ZN23QGeoSatelliteInfoSourceD2Ev@Qt_6 6.6.0
 _ZN23QNmeaPositionInfoSource11qt_metacallEN11QMetaObject4CallEiPPv@Qt_6 6.6.0
 _ZN23QNmeaPositionInfoSource11qt_metacastEPKc@Qt_6 6.6.0
 _ZN23QNmeaPositionInfoSource11stopUpdatesEv@Qt_6 6.6.0
 _ZN23QNmeaPositionInfoSource12startUpdatesEv@Qt_6 6.6.0
 _ZN23QNmeaPositionInfoSource13requestUpdateEi@Qt_6 6.6.0
 _ZN23QNmeaPositionInfoSource16staticMetaObjectE@Qt_6 6.6.0
 _ZN23QNmeaPositionInfoSource17setUpdateIntervalEi@Qt_6 6.6.0
 _ZN23QNmeaPositionInfoSource24parsePosInfoFromNmeaDataE14QByteArrayViewP16QGeoPositionInfoPb@Qt_6 6.6.0
 _ZN23QNmeaPositionInfoSource24parsePosInfoFromNmeaDataEPKciP16QGeoPositionInfoPb@Qt_6 6.6.0
 _ZN23QNmeaPositionInfoSource27setUserEquivalentRangeErrorEd@Qt_6 6.6.0
 _ZN23QNmeaPositionInfoSource8setErrorEN22QGeoPositionInfoSource5ErrorE@Qt_6 6.6.0
 _ZN23QNmeaPositionInfoSource9setDeviceEP9QIODevice@Qt_6 6.6.0
 _ZN23QNmeaPositionInfoSourceC1ENS_10UpdateModeEP7QObject@Qt_6 6.6.0
 _ZN23QNmeaPositionInfoSourceC2ENS_10UpdateModeEP7QObject@Qt_6 6.6.0
 _ZN23QNmeaPositionInfoSourceD0Ev@Qt_6 6.6.0
 _ZN23QNmeaPositionInfoSourceD1Ev@Qt_6 6.6.0
 _ZN23QNmeaPositionInfoSourceD2Ev@Qt_6 6.6.0
 _ZN24QNmeaSatelliteInfoSource11qt_metacallEN11QMetaObject4CallEiPPv@Qt_6 6.6.0
 _ZN24QNmeaSatelliteInfoSource11qt_metacastEPKc@Qt_6 6.6.0
 _ZN24QNmeaSatelliteInfoSource11stopUpdatesEv@Qt_6 6.6.0
 _ZN24QNmeaSatelliteInfoSource12startUpdatesEv@Qt_6 6.6.0
 _ZN24QNmeaSatelliteInfoSource13requestUpdateEi@Qt_6 6.6.0
 _ZN24QNmeaSatelliteInfoSource16staticMetaObjectE@Qt_6 6.6.0
 _ZN24QNmeaSatelliteInfoSource17setUpdateIntervalEi@Qt_6 6.6.0
 _ZN24QNmeaSatelliteInfoSource18setBackendPropertyERK7QStringRK8QVariant@Qt_6 6.6.0
 _ZN24QNmeaSatelliteInfoSource24SimulationUpdateIntervalE@Qt_6 6.6.0
 _ZN24QNmeaSatelliteInfoSource26parseSatelliteInfoFromNmeaE14QByteArrayViewR5QListI17QGeoSatelliteInfoERNS2_15SatelliteSystemE@Qt_6 6.6.0
 _ZN24QNmeaSatelliteInfoSource26parseSatelliteInfoFromNmeaEPKciR5QListI17QGeoSatelliteInfoERNS3_15SatelliteSystemE@Qt_6 6.6.0
 _ZN24QNmeaSatelliteInfoSource28parseSatellitesInUseFromNmeaE14QByteArrayViewR5QListIiE@Qt_6 6.6.0
 _ZN24QNmeaSatelliteInfoSource28parseSatellitesInUseFromNmeaEPKciR5QListIiE@Qt_6 6.6.0
 _ZN24QNmeaSatelliteInfoSource8setErrorEN23QGeoSatelliteInfoSource5ErrorE@Qt_6 6.6.0
 _ZN24QNmeaSatelliteInfoSource9setDeviceEP9QIODevice@Qt_6 6.6.0
 _ZN24QNmeaSatelliteInfoSourceC1ENS_10UpdateModeEP7QObject@Qt_6 6.6.0
 _ZN24QNmeaSatelliteInfoSourceC2ENS_10UpdateModeEP7QObject@Qt_6 6.6.0
 _ZN24QNmeaSatelliteInfoSourceD0Ev@Qt_6 6.6.0
 _ZN24QNmeaSatelliteInfoSourceD1Ev@Qt_6 6.6.0
 _ZN24QNmeaSatelliteInfoSourceD2Ev@Qt_6 6.6.0
 (optional=templinst)_ZN28QExplicitlySharedDataPointerI23QGeoPositionInfoPrivateED1Ev@Qt_6_PRIVATE_API 6.6.0
 (optional=templinst)_ZN28QExplicitlySharedDataPointerI23QGeoPositionInfoPrivateED2Ev@Qt_6_PRIVATE_API 6.6.0
 (optional=templinst)_ZN28QExplicitlySharedDataPointerI24QGeoSatelliteInfoPrivateED1Ev@Qt_6_PRIVATE_API 6.6.0
 (optional=templinst)_ZN28QExplicitlySharedDataPointerI24QGeoSatelliteInfoPrivateED2Ev@Qt_6_PRIVATE_API 6.6.0
 (optional=templinst)_ZN28QExplicitlySharedDataPointerI26QGeoAreaMonitorInfoPrivateED1Ev@Qt_6 6.6.0
 (optional=templinst)_ZN28QExplicitlySharedDataPointerI26QGeoAreaMonitorInfoPrivateED2Ev@Qt_6 6.6.0
 _ZN29QGeoMercatorCoordinatePrivateC1ERKS_@Qt_6_PRIVATE_API 6.6.0
 _ZN29QGeoMercatorCoordinatePrivateC1Ev@Qt_6_PRIVATE_API 6.6.0
 _ZN29QGeoMercatorCoordinatePrivateC2ERKS_@Qt_6_PRIVATE_API 6.6.0
 _ZN29QGeoMercatorCoordinatePrivateC2Ev@Qt_6_PRIVATE_API 6.6.0
 _ZN29QGeoMercatorCoordinatePrivateD0Ev@Qt_6_PRIVATE_API 6.6.0
 _ZN29QGeoMercatorCoordinatePrivateD1Ev@Qt_6_PRIVATE_API 6.6.0
 _ZN29QGeoMercatorCoordinatePrivateD2Ev@Qt_6_PRIVATE_API 6.6.0
 _ZN29QGeoPositionInfoSourceFactoryD0Ev@Qt_6 6.6.0
 _ZN29QGeoPositionInfoSourceFactoryD1Ev@Qt_6 6.6.0
 _ZN29QGeoPositionInfoSourceFactoryD2Ev@Qt_6 6.6.0
 _ZN5QTest8toStringERK16QGeoPositionInfo@Qt_6 6.6.0
 _ZN5QTest8toStringERK17QGeoSatelliteInfo@Qt_6 6.6.0
 _ZN5QTest8toStringERK19QGeoAreaMonitorInfo@Qt_6 6.6.0
 _ZN8QGeoPath13addCoordinateERK14QGeoCoordinate@Qt_6 6.6.0
 _ZN8QGeoPath14setVariantPathERK5QListI8QVariantE@Qt_6 6.6.0
 (subst)_ZN8QGeoPath16insertCoordinateE{qptrdiff}RK14QGeoCoordinate@Qt_6 6.6.0
 _ZN8QGeoPath16removeCoordinateERK14QGeoCoordinate@Qt_6 6.6.0
 (subst)_ZN8QGeoPath16removeCoordinateE{qptrdiff}@Qt_6 6.6.0
 _ZN8QGeoPath16staticMetaObjectE@Qt_6 6.6.0
 (subst)_ZN8QGeoPath17replaceCoordinateE{qptrdiff}RK14QGeoCoordinate@Qt_6 6.6.0
 _ZN8QGeoPath7setPathERK5QListI14QGeoCoordinateE@Qt_6 6.6.0
 _ZN8QGeoPath8setWidthERKd@Qt_6 6.6.0
 _ZN8QGeoPath9clearPathEv@Qt_6 6.6.0
 _ZN8QGeoPath9translateEdd@Qt_6 6.6.0
 _ZN8QGeoPathC1ERK5QListI14QGeoCoordinateERKd@Qt_6 6.6.0
 _ZN8QGeoPathC1ERK9QGeoShape@Qt_6 6.6.0
 _ZN8QGeoPathC1ERKS_@Qt_6 6.6.0
 _ZN8QGeoPathC1Ev@Qt_6 6.6.0
 _ZN8QGeoPathC2ERK5QListI14QGeoCoordinateERKd@Qt_6 6.6.0
 _ZN8QGeoPathC2ERK9QGeoShape@Qt_6 6.6.0
 _ZN8QGeoPathC2ERKS_@Qt_6 6.6.0
 _ZN8QGeoPathC2Ev@Qt_6 6.6.0
 _ZN8QGeoPathD1Ev@Qt_6 6.6.0
 _ZN8QGeoPathD2Ev@Qt_6 6.6.0
 _ZN8QGeoPathaSERKS_@Qt_6 6.6.0
 _ZN9QGeoShape12dataStreamInER11QDataStreamRS_@Qt_6 6.6.0
 _ZN9QGeoShape13dataStreamOutER11QDataStreamRKS_@Qt_6 6.6.0
 _ZN9QGeoShape14debugStreamingE6QDebugRKS_@Qt_6 6.6.0
 _ZN9QGeoShape16staticMetaObjectE@Qt_6 6.6.0
 _ZN9QGeoShape6equalsERKS_S1_@Qt_6 6.6.0
 _ZN9QGeoShapeC1EP16QGeoShapePrivate@Qt_6_PRIVATE_API 6.6.0
 _ZN9QGeoShapeC1ERKS_@Qt_6 6.6.0
 _ZN9QGeoShapeC1Ev@Qt_6 6.6.0
 _ZN9QGeoShapeC2EP16QGeoShapePrivate@Qt_6_PRIVATE_API 6.6.0
 _ZN9QGeoShapeC2ERKS_@Qt_6 6.6.0
 _ZN9QGeoShapeC2Ev@Qt_6 6.6.0
 _ZN9QGeoShapeD1Ev@Qt_6 6.6.0
 _ZN9QGeoShapeD2Ev@Qt_6 6.6.0
 _ZN9QGeoShapeaSERKS_@Qt_6 6.6.0
 _ZNK10QGeoCircle10translatedEdd@Qt_6 6.6.0
 _ZNK10QGeoCircle6centerEv@Qt_6 6.6.0
 _ZNK10QGeoCircle6radiusEv@Qt_6 6.6.0
 _ZNK10QGeoCircle8toStringEv@Qt_6 6.6.0
 _ZNK11QGeoAddress10postalCodeEv@Qt_6 6.6.0
 _ZNK11QGeoAddress11countryCodeEv@Qt_6 6.6.0
 _ZNK11QGeoAddress12streetNumberEv@Qt_6 6.6.0
 _ZNK11QGeoAddress15isTextGeneratedEv@Qt_6 6.6.0
 _ZNK11QGeoAddress4cityEv@Qt_6 6.6.0
 _ZNK11QGeoAddress4textEv@Qt_6 6.6.0
 _ZNK11QGeoAddress5stateEv@Qt_6 6.6.0
 _ZNK11QGeoAddress6countyEv@Qt_6 6.6.0
 _ZNK11QGeoAddress6streetEv@Qt_6 6.6.0
 _ZNK11QGeoAddress7countryEv@Qt_6 6.6.0
 _ZNK11QGeoAddress7isEmptyEv@Qt_6 6.6.0
 _ZNK11QGeoAddress8districtEv@Qt_6 6.6.0
 _ZNK11QGeoPolygon10holesCountEv@Qt_6 6.6.0
 _ZNK11QGeoPolygon10translatedEdd@Qt_6 6.6.0
 (subst)_ZNK11QGeoPolygon12coordinateAtE{qptrdiff}@Qt_6 6.6.0
 _ZNK11QGeoPolygon18containsCoordinateERK14QGeoCoordinate@Qt_6 6.6.0
 (subst)_ZNK11QGeoPolygon4holeE{qptrdiff}@Qt_6 6.6.0
 _ZNK11QGeoPolygon4sizeEv@Qt_6 6.6.0
 (subst)_ZNK11QGeoPolygon6lengthE{qptrdiff}{qptrdiff}@Qt_6 6.6.0
 (subst)_ZNK11QGeoPolygon8holePathE{qptrdiff}@Qt_6 6.6.0
 _ZNK11QGeoPolygon8toStringEv@Qt_6 6.6.0
 _ZNK11QGeoPolygon9perimeterEv@Qt_6 6.6.0
 _ZNK12QGeoLocation10coordinateEv@Qt_6 6.6.0
 _ZNK12QGeoLocation13boundingShapeEv@Qt_6 6.6.0
 _ZNK12QGeoLocation18extendedAttributesEv@Qt_6 6.6.0
 _ZNK12QGeoLocation7addressEv@Qt_6 6.6.0
 _ZNK12QGeoLocation7isEmptyEv@Qt_6 6.6.0
 _ZNK13QClipperUtils14pointInPolygonERK15QDoubleVector2D@Qt_6_PRIVATE_API 6.6.0
 _ZNK13QGeoRectangle10bottomLeftEv@Qt_6 6.6.0
 _ZNK13QGeoRectangle10intersectsERKS_@Qt_6 6.6.0
 _ZNK13QGeoRectangle10translatedEdd@Qt_6 6.6.0
 _ZNK13QGeoRectangle11bottomRightEv@Qt_6 6.6.0
 _ZNK13QGeoRectangle5widthEv@Qt_6 6.6.0
 _ZNK13QGeoRectangle6centerEv@Qt_6 6.6.0
 _ZNK13QGeoRectangle6heightEv@Qt_6 6.6.0
 _ZNK13QGeoRectangle6unitedERKS_@Qt_6 6.6.0
 _ZNK13QGeoRectangle7topLeftEv@Qt_6 6.6.0
 _ZNK13QGeoRectangle8containsERKS_@Qt_6 6.6.0
 _ZNK13QGeoRectangle8toStringEv@Qt_6 6.6.0
 _ZNK13QGeoRectangle8topRightEv@Qt_6 6.6.0
 _ZNK14QGeoCoordinate10distanceToERKS_@Qt_6 6.6.0
 _ZNK14QGeoCoordinate20atDistanceAndAzimuthEddd@Qt_6 6.6.0
 _ZNK14QGeoCoordinate4typeEv@Qt_6 6.6.0
 _ZNK14QGeoCoordinate7isValidEv@Qt_6 6.6.0
 _ZNK14QGeoCoordinate8altitudeEv@Qt_6 6.6.0
 _ZNK14QGeoCoordinate8latitudeEv@Qt_6 6.6.0
 _ZNK14QGeoCoordinate8toStringENS_16CoordinateFormatE@Qt_6 6.6.0
 _ZNK14QGeoCoordinate9azimuthToERKS_@Qt_6 6.6.0
 _ZNK14QGeoCoordinate9longitudeEv@Qt_6 6.6.0
 _ZNK15QDoubleVector2D10normalizedEv@Qt_6_PRIVATE_API 6.6.0
 _ZNK15QDoubleVector2D10toVector3DEv@Qt_6_PRIVATE_API 6.6.0
 _ZNK15QDoubleVector2D6lengthEv@Qt_6_PRIVATE_API 6.6.0
 _ZNK15QDoubleVector3D10normalizedEv@Qt_6_PRIVATE_API 6.6.0
 _ZNK15QDoubleVector3D14distanceToLineERKS_S1_@Qt_6_PRIVATE_API 6.6.0
 _ZNK15QDoubleVector3D15distanceToPlaneERKS_S1_S1_@Qt_6_PRIVATE_API 6.6.0
 _ZNK15QDoubleVector3D6lengthEv@Qt_6_PRIVATE_API 6.6.0
 (subst)_ZNK15QGeoPathPrivate12coordinateAtE{qptrdiff}@Qt_6_PRIVATE_API 6.6.0
 _ZNK15QGeoPathPrivate12lineContainsERK14QGeoCoordinate@Qt_6_PRIVATE_API 6.6.0
 _ZNK15QGeoPathPrivate18containsCoordinateERK14QGeoCoordinate@Qt_6_PRIVATE_API 6.6.0
 _ZNK15QGeoPathPrivate20boundingGeoRectangleEv@Qt_6_PRIVATE_API 6.6.0
 (subst)_ZNK15QGeoPathPrivate4hashE{size_t}@Qt_6_PRIVATE_API 6.6.0
 _ZNK15QGeoPathPrivate4pathEv@Qt_6_PRIVATE_API 6.6.0
 _ZNK15QGeoPathPrivate4sizeEv@Qt_6_PRIVATE_API 6.6.0
 _ZNK15QGeoPathPrivate5cloneEv@Qt_6_PRIVATE_API 6.6.0
 _ZNK15QGeoPathPrivate5widthEv@Qt_6_PRIVATE_API 6.6.0
 _ZNK15QGeoPathPrivate6centerEv@Qt_6_PRIVATE_API 6.6.0
 (subst)_ZNK15QGeoPathPrivate6lengthE{qptrdiff}{qptrdiff}@Qt_6_PRIVATE_API 6.6.0
 _ZNK15QGeoPathPrivate7isEmptyEv@Qt_6_PRIVATE_API 6.6.0
 _ZNK15QGeoPathPrivate7isValidEv@Qt_6_PRIVATE_API 6.6.0
 _ZNK15QGeoPathPrivate8containsERK14QGeoCoordinate@Qt_6_PRIVATE_API 6.6.0
 _ZNK15QGeoPathPrivateeqERK16QGeoShapePrivate@Qt_6_PRIVATE_API 6.6.0
 _ZNK16QDoubleMatrix4x410copyDataToEPd@Qt_6_PRIVATE_API 6.6.0
 _ZNK16QDoubleMatrix4x410transposedEv@Qt_6_PRIVATE_API 6.6.0
 _ZNK16QDoubleMatrix4x411determinantEv@Qt_6_PRIVATE_API 6.6.0
 _ZNK16QDoubleMatrix4x418orthonormalInverseEv@Qt_6_PRIVATE_API 6.6.0
 _ZNK16QDoubleMatrix4x47mapRectERK5QRect@Qt_6_PRIVATE_API 6.6.0
 _ZNK16QDoubleMatrix4x47mapRectERK6QRectF@Qt_6_PRIVATE_API 6.6.0
 _ZNK16QDoubleMatrix4x48invertedEPb@Qt_6_PRIVATE_API 6.6.0
 _ZNK16QGeoPositionInfo10coordinateEv@Qt_6 6.6.0
 _ZNK16QGeoPositionInfo12hasAttributeENS_9AttributeE@Qt_6 6.6.0
 _ZNK16QGeoPositionInfo7isValidEv@Qt_6 6.6.0
 _ZNK16QGeoPositionInfo9attributeENS_9AttributeE@Qt_6 6.6.0
 _ZNK16QGeoPositionInfo9timestampEv@Qt_6 6.6.0
 _ZNK17QGeoSatelliteInfo12hasAttributeENS_9AttributeE@Qt_6 6.6.0
 _ZNK17QGeoSatelliteInfo14signalStrengthEv@Qt_6 6.6.0
 _ZNK17QGeoSatelliteInfo15satelliteSystemEv@Qt_6 6.6.0
 _ZNK17QGeoSatelliteInfo19satelliteIdentifierEv@Qt_6 6.6.0
 _ZNK17QGeoSatelliteInfo9attributeENS_9AttributeE@Qt_6 6.6.0
 _ZNK18QGeoPolygonPrivate10holesCountEv@Qt_6_PRIVATE_API 6.6.0
 _ZNK18QGeoPolygonPrivate15polygonContainsERK14QGeoCoordinate@Qt_6_PRIVATE_API 6.6.0
 (subst)_ZNK18QGeoPolygonPrivate4hashE{size_t}@Qt_6_PRIVATE_API 6.6.0
 _ZNK18QGeoPolygonPrivate5cloneEv@Qt_6_PRIVATE_API 6.6.0
 _ZNK18QGeoPolygonPrivate7isValidEv@Qt_6_PRIVATE_API 6.6.0
 _ZNK18QGeoPolygonPrivate8containsERK14QGeoCoordinate@Qt_6_PRIVATE_API 6.6.0
 (subst)_ZNK18QGeoPolygonPrivate8holePathE{qptrdiff}@Qt_6_PRIVATE_API 6.6.0
 _ZNK18QGeoPolygonPrivateeqERK16QGeoShapePrivate@Qt_6_PRIVATE_API 6.6.0
 _ZNK19QGeoAreaMonitorInfo10expirationEv@Qt_6 6.6.0
 _ZNK19QGeoAreaMonitorInfo10identifierEv@Qt_6 6.6.0
 _ZNK19QGeoAreaMonitorInfo12isPersistentEv@Qt_6 6.6.0
 _ZNK19QGeoAreaMonitorInfo22notificationParametersEv@Qt_6 6.6.0
 _ZNK19QGeoAreaMonitorInfo4areaEv@Qt_6 6.6.0
 _ZNK19QGeoAreaMonitorInfo4nameEv@Qt_6 6.6.0
 _ZNK19QGeoAreaMonitorInfo7isValidEv@Qt_6 6.6.0
 _ZNK20QGeoCoordinateObject10coordinateEv@Qt_6_PRIVATE_API 6.6.0
 _ZNK20QGeoCoordinateObject10metaObjectEv@Qt_6_PRIVATE_API 6.6.0
 _ZNK20QGeoCoordinateObjecteqERK14QGeoCoordinate@Qt_6_PRIVATE_API 6.6.0
 _ZNK20QGeoCoordinateObjecteqERKS_@Qt_6_PRIVATE_API 6.6.0
 _ZNK20QGeoPathPrivateEager5cloneEv@Qt_6_PRIVATE_API 6.6.0
 _ZNK21QGeoAreaMonitorSource10metaObjectEv@Qt_6 6.6.0
 _ZNK21QGeoAreaMonitorSource10sourceNameEv@Qt_6 6.6.0
 _ZNK21QGeoAreaMonitorSource15backendPropertyERK7QString@Qt_6 6.6.0
 _ZNK21QGeoAreaMonitorSource18positionInfoSourceEv@Qt_6 6.6.0
 _ZNK22QGeoPositionInfoSource10metaObjectEv@Qt_6 6.6.0
 _ZNK22QGeoPositionInfoSource10sourceNameEv@Qt_6 6.6.0
 _ZNK22QGeoPositionInfoSource14updateIntervalEv@Qt_6 6.6.0
 _ZNK22QGeoPositionInfoSource15backendPropertyERK7QString@Qt_6 6.6.0
 _ZNK22QGeoPositionInfoSource27preferredPositioningMethodsEv@Qt_6 6.6.0
 _ZNK23QGeoPolygonPrivateEager5cloneEv@Qt_6_PRIVATE_API 6.6.0
 _ZNK23QGeoSatelliteInfoSource10metaObjectEv@Qt_6 6.6.0
 _ZNK23QGeoSatelliteInfoSource10sourceNameEv@Qt_6 6.6.0
 _ZNK23QGeoSatelliteInfoSource14updateIntervalEv@Qt_6 6.6.0
 _ZNK23QGeoSatelliteInfoSource15backendPropertyERK7QString@Qt_6 6.6.0
 _ZNK23QNmeaPositionInfoSource10metaObjectEv@Qt_6 6.6.0
 _ZNK23QNmeaPositionInfoSource10updateModeEv@Qt_6 6.6.0
 _ZNK23QNmeaPositionInfoSource17lastKnownPositionEb@Qt_6 6.6.0
 _ZNK23QNmeaPositionInfoSource21minimumUpdateIntervalEv@Qt_6 6.6.0
 _ZNK23QNmeaPositionInfoSource24userEquivalentRangeErrorEv@Qt_6 6.6.0
 _ZNK23QNmeaPositionInfoSource27supportedPositioningMethodsEv@Qt_6 6.6.0
 _ZNK23QNmeaPositionInfoSource5errorEv@Qt_6 6.6.0
 _ZNK23QNmeaPositionInfoSource6deviceEv@Qt_6 6.6.0
 _ZNK24QNmeaSatelliteInfoSource10metaObjectEv@Qt_6 6.6.0
 _ZNK24QNmeaSatelliteInfoSource10updateModeEv@Qt_6 6.6.0
 _ZNK24QNmeaSatelliteInfoSource15backendPropertyERK7QString@Qt_6 6.6.0
 _ZNK24QNmeaSatelliteInfoSource21minimumUpdateIntervalEv@Qt_6 6.6.0
 _ZNK24QNmeaSatelliteInfoSource5errorEv@Qt_6 6.6.0
 _ZNK24QNmeaSatelliteInfoSource6deviceEv@Qt_6 6.6.0
 _ZNK8QGeoPath10translatedEdd@Qt_6 6.6.0
 _ZNK8QGeoPath11variantPathEv@Qt_6 6.6.0
 (subst)_ZNK8QGeoPath12coordinateAtE{qptrdiff}@Qt_6 6.6.0
 _ZNK8QGeoPath18containsCoordinateERK14QGeoCoordinate@Qt_6 6.6.0
 _ZNK8QGeoPath4pathEv@Qt_6 6.6.0
 _ZNK8QGeoPath4sizeEv@Qt_6 6.6.0
 _ZNK8QGeoPath5widthEv@Qt_6 6.6.0
 (subst)_ZNK8QGeoPath6lengthE{qptrdiff}{qptrdiff}@Qt_6 6.6.0
 _ZNK8QGeoPath8toStringEv@Qt_6 6.6.0
 _ZNK9QGeoShape20boundingGeoRectangleEv@Qt_6 6.6.0
 _ZNK9QGeoShape4typeEv@Qt_6 6.6.0
 _ZNK9QGeoShape6centerEv@Qt_6 6.6.0
 _ZNK9QGeoShape7isEmptyEv@Qt_6 6.6.0
 _ZNK9QGeoShape7isValidEv@Qt_6 6.6.0
 _ZNK9QGeoShape8containsERK14QGeoCoordinate@Qt_6 6.6.0
 _ZNK9QGeoShape8toStringEv@Qt_6 6.6.0
 _ZTI15QGeoPathPrivate@Qt_6_PRIVATE_API 6.6.0
 _ZTI18QGeoPolygonPrivate@Qt_6_PRIVATE_API 6.6.0
 _ZTI20QGeoCoordinateObject@Qt_6_PRIVATE_API 6.6.0
 _ZTI20QGeoPathPrivateEager@Qt_6_PRIVATE_API 6.6.0
 _ZTI21QGeoAreaMonitorSource@Qt_6 6.6.0
 _ZTI22QGeoPositionInfoSource@Qt_6 6.6.0
 _ZTI23QGeoPolygonPrivateEager@Qt_6_PRIVATE_API 6.6.0
 _ZTI23QGeoSatelliteInfoSource@Qt_6 6.6.0
 _ZTI23QNmeaPositionInfoSource@Qt_6 6.6.0
 _ZTI24QNmeaSatelliteInfoSource@Qt_6 6.6.0
 _ZTI29QGeoMercatorCoordinatePrivate@Qt_6_PRIVATE_API 6.6.0
 _ZTI29QGeoPositionInfoSourceFactory@Qt_6 6.6.0
 _ZTIZN9QMetaType17registerConverterI5QListI14QGeoCoordinateE9QIterableI13QMetaSequenceEN9QtPrivate33QSequentialIterableConvertFunctorIS3_EEEEbT1_EUlPKvPvE_@Qt_6 6.6.0
 _ZTIZN9QMetaType17registerConverterI5QListI17QGeoSatelliteInfoE9QIterableI13QMetaSequenceEN9QtPrivate33QSequentialIterableConvertFunctorIS3_EEEEbT1_EUlPKvPvE_@Qt_6 6.6.0
 _ZTIZN9QMetaType19registerMutableViewI5QListI14QGeoCoordinateE9QIterableI13QMetaSequenceEN9QtPrivate37QSequentialIterableMutableViewFunctorIS3_EEEEbT1_EUlPvSB_E_@Qt_6 6.6.0
 _ZTIZN9QMetaType19registerMutableViewI5QListI17QGeoSatelliteInfoE9QIterableI13QMetaSequenceEN9QtPrivate37QSequentialIterableMutableViewFunctorIS3_EEEEbT1_EUlPvSB_E_@Qt_6 6.6.0
 _ZTS15QGeoPathPrivate@Qt_6_PRIVATE_API 6.6.0
 _ZTS18QGeoPolygonPrivate@Qt_6_PRIVATE_API 6.6.0
 _ZTS20QGeoCoordinateObject@Qt_6_PRIVATE_API 6.6.0
 _ZTS20QGeoPathPrivateEager@Qt_6_PRIVATE_API 6.6.0
 _ZTS21QGeoAreaMonitorSource@Qt_6 6.6.0
 _ZTS22QGeoPositionInfoSource@Qt_6 6.6.0
 _ZTS23QGeoPolygonPrivateEager@Qt_6_PRIVATE_API 6.6.0
 _ZTS23QGeoSatelliteInfoSource@Qt_6 6.6.0
 _ZTS23QNmeaPositionInfoSource@Qt_6 6.6.0
 _ZTS24QNmeaSatelliteInfoSource@Qt_6 6.6.0
 _ZTS29QGeoMercatorCoordinatePrivate@Qt_6_PRIVATE_API 6.6.0
 _ZTS29QGeoPositionInfoSourceFactory@Qt_6 6.6.0
 _ZTSZN9QMetaType17registerConverterI5QListI14QGeoCoordinateE9QIterableI13QMetaSequenceEN9QtPrivate33QSequentialIterableConvertFunctorIS3_EEEEbT1_EUlPKvPvE_@Qt_6 6.6.0
 _ZTSZN9QMetaType17registerConverterI5QListI17QGeoSatelliteInfoE9QIterableI13QMetaSequenceEN9QtPrivate33QSequentialIterableConvertFunctorIS3_EEEEbT1_EUlPKvPvE_@Qt_6 6.6.0
 _ZTSZN9QMetaType19registerMutableViewI5QListI14QGeoCoordinateE9QIterableI13QMetaSequenceEN9QtPrivate37QSequentialIterableMutableViewFunctorIS3_EEEEbT1_EUlPvSB_E_@Qt_6 6.6.0
 _ZTSZN9QMetaType19registerMutableViewI5QListI17QGeoSatelliteInfoE9QIterableI13QMetaSequenceEN9QtPrivate37QSequentialIterableMutableViewFunctorIS3_EEEEbT1_EUlPvSB_E_@Qt_6 6.6.0
 _ZTV15QGeoPathPrivate@Qt_6_PRIVATE_API 6.6.0
 _ZTV18QGeoPolygonPrivate@Qt_6_PRIVATE_API 6.6.0
 _ZTV20QGeoCoordinateObject@Qt_6_PRIVATE_API 6.6.0
 _ZTV20QGeoPathPrivateEager@Qt_6_PRIVATE_API 6.6.0
 _ZTV21QGeoAreaMonitorSource@Qt_6 6.6.0
 _ZTV22QGeoPositionInfoSource@Qt_6 6.6.0
 _ZTV23QGeoPolygonPrivateEager@Qt_6_PRIVATE_API 6.6.0
 _ZTV23QGeoSatelliteInfoSource@Qt_6 6.6.0
 _ZTV23QNmeaPositionInfoSource@Qt_6 6.6.0
 _ZTV24QNmeaSatelliteInfoSource@Qt_6 6.6.0
 _ZTV29QGeoMercatorCoordinatePrivate@Qt_6_PRIVATE_API 6.6.0
 _ZTV29QGeoPositionInfoSourceFactory@Qt_6 6.6.0
 (optional=templinst)_ZZN9QMetaType21registerConverterImplI5QListI14QGeoCoordinateE9QIterableI13QMetaSequenceEEEbSt8functionIFbPKvPvEES_S_E10unregister@Qt_6 6.6.0
 (optional=templinst)_ZZN9QMetaType21registerConverterImplI5QListI17QGeoSatelliteInfoE9QIterableI13QMetaSequenceEEEbSt8functionIFbPKvPvEES_S_E10unregister@Qt_6 6.6.0
 (optional=templinst)_ZZN9QMetaType23registerMutableViewImplI5QListI14QGeoCoordinateE9QIterableI13QMetaSequenceEEEbSt8functionIFbPvS8_EES_S_E10unregister@Qt_6 6.6.0
 (optional=templinst)_ZZN9QMetaType23registerMutableViewImplI5QListI17QGeoSatelliteInfoE9QIterableI13QMetaSequenceEEEbSt8functionIFbPvS8_EES_S_E10unregister@Qt_6 6.6.0
 _ZdvRK16QDoubleMatrix4x4d@Qt_6_PRIVATE_API 6.6.0
 _Zls6QDebugRK15QDoubleVector2D@Qt_6_PRIVATE_API 6.6.0
 _Zls6QDebugRK15QDoubleVector3D@Qt_6_PRIVATE_API 6.6.0
 _Zls6QDebugRK16QDoubleMatrix4x4@Qt_6_PRIVATE_API 6.6.0
 _ZlsR11QDataStreamRK15QDoubleVector2D@Qt_6_PRIVATE_API 6.6.0
 _ZlsR11QDataStreamRK15QDoubleVector3D@Qt_6_PRIVATE_API 6.6.0
 _ZlsR11QDataStreamRK16QDoubleMatrix4x4@Qt_6_PRIVATE_API 6.6.0
 _ZrsR11QDataStreamR15QDoubleVector2D@Qt_6_PRIVATE_API 6.6.0
 _ZrsR11QDataStreamR15QDoubleVector3D@Qt_6_PRIVATE_API 6.6.0
 _ZrsR11QDataStreamR16QDoubleMatrix4x4@Qt_6_PRIVATE_API 6.6.0
